
kernel/kernel:     file format elf32-i386


Disassembly of section .text:

00100000 <multiboot_header>:
  100000:	02 b0 ad 1b 01 00    	add    0x11bad(%eax),%dh
  100006:	01 00                	add    %eax,(%eax)
  100008:	fd                   	std    
  100009:	4f                   	dec    %edi
  10000a:	51                   	push   %ecx
  10000b:	e4 00                	in     $0x0,%al
  10000d:	00 10                	add    %dl,(%eax)
  10000f:	00 00                	add    %al,(%eax)
  100011:	00 10                	add    %dl,(%eax)
  100013:	00 b6 ca 10 00 34    	add    %dh,0x340010ca(%esi)
  100019:	59                   	pop    %ecx
  10001a:	11 00                	adc    %eax,(%eax)
  10001c:	20 00                	and    %al,(%eax)
  10001e:	10 00                	adc    %al,(%eax)

00100020 <multiboot_entry>:
  100020:	0f 01 15 64 00 10 00 	lgdtl  0x100064
  100027:	ea 2e 00 10 00 08 00 	ljmp   $0x8,$0x10002e

0010002e <mbstart32>:
  10002e:	66 b8 10 00          	mov    $0x10,%ax
  100032:	8e d8                	mov    %eax,%ds
  100034:	8e c0                	mov    %eax,%es
  100036:	8e d0                	mov    %eax,%ss
  100038:	66 b8 00 00          	mov    $0x0,%ax
  10003c:	8e e0                	mov    %eax,%fs
  10003e:	8e e8                	mov    %eax,%gs
  100040:	bc 80 db 10 00       	mov    $0x10db80,%esp
  100045:	e8 9b 31 00 00       	call   1031e5 <main>

0010004a <spin>:
  10004a:	eb fe                	jmp    10004a <spin>

0010004c <gdt>:
	...
  100054:	ff                   	(bad)  
  100055:	ff 00                	incl   (%eax)
  100057:	00 00                	add    %al,(%eax)
  100059:	9a cf 00 ff ff 00 00 	lcall  $0x0,$0xffff00cf
  100060:	00                   	.byte 0x0
  100061:	92                   	xchg   %eax,%edx
  100062:	cf                   	iret   
	...

00100064 <gdtdesc>:
  100064:	17                   	pop    %ss
  100065:	00 4c 00 10          	add    %cl,0x10(%eax,%eax,1)
	...

0010006a <binit>:
  10006a:	55                   	push   %ebp
  10006b:	89 e5                	mov    %esp,%ebp
  10006d:	83 ec 18             	sub    $0x18,%esp
  100070:	83 ec 08             	sub    $0x8,%esp
  100073:	68 e0 8d 10 00       	push   $0x108de0
  100078:	68 80 db 10 00       	push   $0x10db80
  10007d:	e8 a4 48 00 00       	call   104926 <initlock>
  100082:	83 c4 10             	add    $0x10,%esp
  100085:	c7 05 b0 f0 10 00 a4 	movl   $0x10f0a4,0x10f0b0
  10008c:	f0 10 00 
  10008f:	c7 05 b4 f0 10 00 a4 	movl   $0x10f0a4,0x10f0b4
  100096:	f0 10 00 
  100099:	c7 45 f4 b4 db 10 00 	movl   $0x10dbb4,-0xc(%ebp)
  1000a0:	eb 3a                	jmp    1000dc <binit+0x72>
  1000a2:	8b 15 b4 f0 10 00    	mov    0x10f0b4,%edx
  1000a8:	8b 45 f4             	mov    -0xc(%ebp),%eax
  1000ab:	89 50 10             	mov    %edx,0x10(%eax)
  1000ae:	8b 45 f4             	mov    -0xc(%ebp),%eax
  1000b1:	c7 40 0c a4 f0 10 00 	movl   $0x10f0a4,0xc(%eax)
  1000b8:	8b 45 f4             	mov    -0xc(%ebp),%eax
  1000bb:	c7 40 04 ff ff ff ff 	movl   $0xffffffff,0x4(%eax)
  1000c2:	a1 b4 f0 10 00       	mov    0x10f0b4,%eax
  1000c7:	8b 55 f4             	mov    -0xc(%ebp),%edx
  1000ca:	89 50 0c             	mov    %edx,0xc(%eax)
  1000cd:	8b 45 f4             	mov    -0xc(%ebp),%eax
  1000d0:	a3 b4 f0 10 00       	mov    %eax,0x10f0b4
  1000d5:	81 45 f4 18 02 00 00 	addl   $0x218,-0xc(%ebp)
  1000dc:	b8 a4 f0 10 00       	mov    $0x10f0a4,%eax
  1000e1:	39 45 f4             	cmp    %eax,-0xc(%ebp)
  1000e4:	72 bc                	jb     1000a2 <binit+0x38>
  1000e6:	90                   	nop
  1000e7:	c9                   	leave  
  1000e8:	c3                   	ret    

001000e9 <bget>:
  1000e9:	55                   	push   %ebp
  1000ea:	89 e5                	mov    %esp,%ebp
  1000ec:	83 ec 18             	sub    $0x18,%esp
  1000ef:	83 ec 0c             	sub    $0xc,%esp
  1000f2:	68 80 db 10 00       	push   $0x10db80
  1000f7:	e8 4c 48 00 00       	call   104948 <acquire>
  1000fc:	83 c4 10             	add    $0x10,%esp
  1000ff:	a1 b4 f0 10 00       	mov    0x10f0b4,%eax
  100104:	89 45 f4             	mov    %eax,-0xc(%ebp)
  100107:	eb 67                	jmp    100170 <bget+0x87>
  100109:	8b 45 f4             	mov    -0xc(%ebp),%eax
  10010c:	8b 40 04             	mov    0x4(%eax),%eax
  10010f:	39 45 08             	cmp    %eax,0x8(%ebp)
  100112:	75 53                	jne    100167 <bget+0x7e>
  100114:	8b 45 f4             	mov    -0xc(%ebp),%eax
  100117:	8b 40 08             	mov    0x8(%eax),%eax
  10011a:	39 45 0c             	cmp    %eax,0xc(%ebp)
  10011d:	75 48                	jne    100167 <bget+0x7e>
  10011f:	8b 45 f4             	mov    -0xc(%ebp),%eax
  100122:	8b 00                	mov    (%eax),%eax
  100124:	83 e0 01             	and    $0x1,%eax
  100127:	85 c0                	test   %eax,%eax
  100129:	75 27                	jne    100152 <bget+0x69>
  10012b:	8b 45 f4             	mov    -0xc(%ebp),%eax
  10012e:	8b 00                	mov    (%eax),%eax
  100130:	83 c8 01             	or     $0x1,%eax
  100133:	89 c2                	mov    %eax,%edx
  100135:	8b 45 f4             	mov    -0xc(%ebp),%eax
  100138:	89 10                	mov    %edx,(%eax)
  10013a:	83 ec 0c             	sub    $0xc,%esp
  10013d:	68 80 db 10 00       	push   $0x10db80
  100142:	e8 68 48 00 00       	call   1049af <release>
  100147:	83 c4 10             	add    $0x10,%esp
  10014a:	8b 45 f4             	mov    -0xc(%ebp),%eax
  10014d:	e9 8c 00 00 00       	jmp    1001de <bget+0xf5>
  100152:	83 ec 08             	sub    $0x8,%esp
  100155:	68 80 db 10 00       	push   $0x10db80
  10015a:	ff 75 f4             	pushl  -0xc(%ebp)
  10015d:	e8 ed 44 00 00       	call   10464f <sleep>
  100162:	83 c4 10             	add    $0x10,%esp
  100165:	eb 98                	jmp    1000ff <bget+0x16>
  100167:	8b 45 f4             	mov    -0xc(%ebp),%eax
  10016a:	8b 40 10             	mov    0x10(%eax),%eax
  10016d:	89 45 f4             	mov    %eax,-0xc(%ebp)
  100170:	81 7d f4 a4 f0 10 00 	cmpl   $0x10f0a4,-0xc(%ebp)
  100177:	75 90                	jne    100109 <bget+0x20>
  100179:	a1 b0 f0 10 00       	mov    0x10f0b0,%eax
  10017e:	89 45 f4             	mov    %eax,-0xc(%ebp)
  100181:	eb 45                	jmp    1001c8 <bget+0xdf>
  100183:	8b 45 f4             	mov    -0xc(%ebp),%eax
  100186:	8b 00                	mov    (%eax),%eax
  100188:	83 e0 01             	and    $0x1,%eax
  10018b:	85 c0                	test   %eax,%eax
  10018d:	75 30                	jne    1001bf <bget+0xd6>
  10018f:	8b 45 f4             	mov    -0xc(%ebp),%eax
  100192:	8b 55 08             	mov    0x8(%ebp),%edx
  100195:	89 50 04             	mov    %edx,0x4(%eax)
  100198:	8b 45 f4             	mov    -0xc(%ebp),%eax
  10019b:	8b 55 0c             	mov    0xc(%ebp),%edx
  10019e:	89 50 08             	mov    %edx,0x8(%eax)
  1001a1:	8b 45 f4             	mov    -0xc(%ebp),%eax
  1001a4:	c7 00 01 00 00 00    	movl   $0x1,(%eax)
  1001aa:	83 ec 0c             	sub    $0xc,%esp
  1001ad:	68 80 db 10 00       	push   $0x10db80
  1001b2:	e8 f8 47 00 00       	call   1049af <release>
  1001b7:	83 c4 10             	add    $0x10,%esp
  1001ba:	8b 45 f4             	mov    -0xc(%ebp),%eax
  1001bd:	eb 1f                	jmp    1001de <bget+0xf5>
  1001bf:	8b 45 f4             	mov    -0xc(%ebp),%eax
  1001c2:	8b 40 0c             	mov    0xc(%eax),%eax
  1001c5:	89 45 f4             	mov    %eax,-0xc(%ebp)
  1001c8:	81 7d f4 a4 f0 10 00 	cmpl   $0x10f0a4,-0xc(%ebp)
  1001cf:	75 b2                	jne    100183 <bget+0x9a>
  1001d1:	83 ec 0c             	sub    $0xc,%esp
  1001d4:	68 e7 8d 10 00       	push   $0x108de7
  1001d9:	e8 9a 03 00 00       	call   100578 <panic>
  1001de:	c9                   	leave  
  1001df:	c3                   	ret    

001001e0 <bread>:
  1001e0:	55                   	push   %ebp
  1001e1:	89 e5                	mov    %esp,%ebp
  1001e3:	83 ec 18             	sub    $0x18,%esp
  1001e6:	83 ec 08             	sub    $0x8,%esp
  1001e9:	ff 75 0c             	pushl  0xc(%ebp)
  1001ec:	ff 75 08             	pushl  0x8(%ebp)
  1001ef:	e8 f5 fe ff ff       	call   1000e9 <bget>
  1001f4:	83 c4 10             	add    $0x10,%esp
  1001f7:	89 45 f4             	mov    %eax,-0xc(%ebp)
  1001fa:	8b 45 f4             	mov    -0xc(%ebp),%eax
  1001fd:	8b 00                	mov    (%eax),%eax
  1001ff:	83 e0 02             	and    $0x2,%eax
  100202:	85 c0                	test   %eax,%eax
  100204:	75 0e                	jne    100214 <bread+0x34>
  100206:	83 ec 0c             	sub    $0xc,%esp
  100209:	ff 75 f4             	pushl  -0xc(%ebp)
  10020c:	e8 c9 27 00 00       	call   1029da <iderw>
  100211:	83 c4 10             	add    $0x10,%esp
  100214:	8b 45 f4             	mov    -0xc(%ebp),%eax
  100217:	c9                   	leave  
  100218:	c3                   	ret    

00100219 <bwrite>:
  100219:	55                   	push   %ebp
  10021a:	89 e5                	mov    %esp,%ebp
  10021c:	83 ec 08             	sub    $0x8,%esp
  10021f:	8b 45 08             	mov    0x8(%ebp),%eax
  100222:	8b 00                	mov    (%eax),%eax
  100224:	83 e0 01             	and    $0x1,%eax
  100227:	85 c0                	test   %eax,%eax
  100229:	75 0d                	jne    100238 <bwrite+0x1f>
  10022b:	83 ec 0c             	sub    $0xc,%esp
  10022e:	68 f8 8d 10 00       	push   $0x108df8
  100233:	e8 40 03 00 00       	call   100578 <panic>
  100238:	8b 45 08             	mov    0x8(%ebp),%eax
  10023b:	8b 00                	mov    (%eax),%eax
  10023d:	83 c8 04             	or     $0x4,%eax
  100240:	89 c2                	mov    %eax,%edx
  100242:	8b 45 08             	mov    0x8(%ebp),%eax
  100245:	89 10                	mov    %edx,(%eax)
  100247:	83 ec 0c             	sub    $0xc,%esp
  10024a:	ff 75 08             	pushl  0x8(%ebp)
  10024d:	e8 88 27 00 00       	call   1029da <iderw>
  100252:	83 c4 10             	add    $0x10,%esp
  100255:	90                   	nop
  100256:	c9                   	leave  
  100257:	c3                   	ret    

00100258 <brelse>:
  100258:	55                   	push   %ebp
  100259:	89 e5                	mov    %esp,%ebp
  10025b:	83 ec 08             	sub    $0x8,%esp
  10025e:	8b 45 08             	mov    0x8(%ebp),%eax
  100261:	8b 00                	mov    (%eax),%eax
  100263:	83 e0 01             	and    $0x1,%eax
  100266:	85 c0                	test   %eax,%eax
  100268:	75 0d                	jne    100277 <brelse+0x1f>
  10026a:	83 ec 0c             	sub    $0xc,%esp
  10026d:	68 ff 8d 10 00       	push   $0x108dff
  100272:	e8 01 03 00 00       	call   100578 <panic>
  100277:	83 ec 0c             	sub    $0xc,%esp
  10027a:	68 80 db 10 00       	push   $0x10db80
  10027f:	e8 c4 46 00 00       	call   104948 <acquire>
  100284:	83 c4 10             	add    $0x10,%esp
  100287:	8b 45 08             	mov    0x8(%ebp),%eax
  10028a:	8b 40 10             	mov    0x10(%eax),%eax
  10028d:	8b 55 08             	mov    0x8(%ebp),%edx
  100290:	8b 52 0c             	mov    0xc(%edx),%edx
  100293:	89 50 0c             	mov    %edx,0xc(%eax)
  100296:	8b 45 08             	mov    0x8(%ebp),%eax
  100299:	8b 40 0c             	mov    0xc(%eax),%eax
  10029c:	8b 55 08             	mov    0x8(%ebp),%edx
  10029f:	8b 52 10             	mov    0x10(%edx),%edx
  1002a2:	89 50 10             	mov    %edx,0x10(%eax)
  1002a5:	8b 15 b4 f0 10 00    	mov    0x10f0b4,%edx
  1002ab:	8b 45 08             	mov    0x8(%ebp),%eax
  1002ae:	89 50 10             	mov    %edx,0x10(%eax)
  1002b1:	8b 45 08             	mov    0x8(%ebp),%eax
  1002b4:	c7 40 0c a4 f0 10 00 	movl   $0x10f0a4,0xc(%eax)
  1002bb:	a1 b4 f0 10 00       	mov    0x10f0b4,%eax
  1002c0:	8b 55 08             	mov    0x8(%ebp),%edx
  1002c3:	89 50 0c             	mov    %edx,0xc(%eax)
  1002c6:	8b 45 08             	mov    0x8(%ebp),%eax
  1002c9:	a3 b4 f0 10 00       	mov    %eax,0x10f0b4
  1002ce:	8b 45 08             	mov    0x8(%ebp),%eax
  1002d1:	8b 00                	mov    (%eax),%eax
  1002d3:	83 e0 fe             	and    $0xfffffffe,%eax
  1002d6:	89 c2                	mov    %eax,%edx
  1002d8:	8b 45 08             	mov    0x8(%ebp),%eax
  1002db:	89 10                	mov    %edx,(%eax)
  1002dd:	83 ec 0c             	sub    $0xc,%esp
  1002e0:	ff 75 08             	pushl  0x8(%ebp)
  1002e3:	e8 52 44 00 00       	call   10473a <wakeup>
  1002e8:	83 c4 10             	add    $0x10,%esp
  1002eb:	83 ec 0c             	sub    $0xc,%esp
  1002ee:	68 80 db 10 00       	push   $0x10db80
  1002f3:	e8 b7 46 00 00       	call   1049af <release>
  1002f8:	83 c4 10             	add    $0x10,%esp
  1002fb:	90                   	nop
  1002fc:	c9                   	leave  
  1002fd:	c3                   	ret    

001002fe <inb>:
  1002fe:	55                   	push   %ebp
  1002ff:	89 e5                	mov    %esp,%ebp
  100301:	83 ec 14             	sub    $0x14,%esp
  100304:	8b 45 08             	mov    0x8(%ebp),%eax
  100307:	66 89 45 ec          	mov    %ax,-0x14(%ebp)
  10030b:	0f b7 45 ec          	movzwl -0x14(%ebp),%eax
  10030f:	89 c2                	mov    %eax,%edx
  100311:	ec                   	in     (%dx),%al
  100312:	88 45 ff             	mov    %al,-0x1(%ebp)
  100315:	0f b6 45 ff          	movzbl -0x1(%ebp),%eax
  100319:	c9                   	leave  
  10031a:	c3                   	ret    

0010031b <outb>:
  10031b:	55                   	push   %ebp
  10031c:	89 e5                	mov    %esp,%ebp
  10031e:	83 ec 08             	sub    $0x8,%esp
  100321:	8b 55 08             	mov    0x8(%ebp),%edx
  100324:	8b 45 0c             	mov    0xc(%ebp),%eax
  100327:	66 89 55 fc          	mov    %dx,-0x4(%ebp)
  10032b:	88 45 f8             	mov    %al,-0x8(%ebp)
  10032e:	0f b6 45 f8          	movzbl -0x8(%ebp),%eax
  100332:	0f b7 55 fc          	movzwl -0x4(%ebp),%edx
  100336:	ee                   	out    %al,(%dx)
  100337:	90                   	nop
  100338:	c9                   	leave  
  100339:	c3                   	ret    

0010033a <cli>:
  10033a:	55                   	push   %ebp
  10033b:	89 e5                	mov    %esp,%ebp
  10033d:	fa                   	cli    
  10033e:	90                   	nop
  10033f:	5d                   	pop    %ebp
  100340:	c3                   	ret    

00100341 <printint>:
  100341:	55                   	push   %ebp
  100342:	89 e5                	mov    %esp,%ebp
  100344:	83 ec 28             	sub    $0x28,%esp
  100347:	83 7d 10 00          	cmpl   $0x0,0x10(%ebp)
  10034b:	74 1c                	je     100369 <printint+0x28>
  10034d:	8b 45 08             	mov    0x8(%ebp),%eax
  100350:	c1 e8 1f             	shr    $0x1f,%eax
  100353:	0f b6 c0             	movzbl %al,%eax
  100356:	89 45 10             	mov    %eax,0x10(%ebp)
  100359:	83 7d 10 00          	cmpl   $0x0,0x10(%ebp)
  10035d:	74 0a                	je     100369 <printint+0x28>
  10035f:	8b 45 08             	mov    0x8(%ebp),%eax
  100362:	f7 d8                	neg    %eax
  100364:	89 45 f0             	mov    %eax,-0x10(%ebp)
  100367:	eb 06                	jmp    10036f <printint+0x2e>
  100369:	8b 45 08             	mov    0x8(%ebp),%eax
  10036c:	89 45 f0             	mov    %eax,-0x10(%ebp)
  10036f:	c7 45 f4 00 00 00 00 	movl   $0x0,-0xc(%ebp)
  100376:	8b 4d 0c             	mov    0xc(%ebp),%ecx
  100379:	8b 45 f0             	mov    -0x10(%ebp),%eax
  10037c:	ba 00 00 00 00       	mov    $0x0,%edx
  100381:	f7 f1                	div    %ecx
  100383:	89 d1                	mov    %edx,%ecx
  100385:	8b 45 f4             	mov    -0xc(%ebp),%eax
  100388:	8d 50 01             	lea    0x1(%eax),%edx
  10038b:	89 55 f4             	mov    %edx,-0xc(%ebp)
  10038e:	0f b6 91 08 c0 10 00 	movzbl 0x10c008(%ecx),%edx
  100395:	88 54 05 e0          	mov    %dl,-0x20(%ebp,%eax,1)
  100399:	8b 4d 0c             	mov    0xc(%ebp),%ecx
  10039c:	8b 45 f0             	mov    -0x10(%ebp),%eax
  10039f:	ba 00 00 00 00       	mov    $0x0,%edx
  1003a4:	f7 f1                	div    %ecx
  1003a6:	89 45 f0             	mov    %eax,-0x10(%ebp)
  1003a9:	83 7d f0 00          	cmpl   $0x0,-0x10(%ebp)
  1003ad:	75 c7                	jne    100376 <printint+0x35>
  1003af:	83 7d 10 00          	cmpl   $0x0,0x10(%ebp)
  1003b3:	74 2a                	je     1003df <printint+0x9e>
  1003b5:	8b 45 f4             	mov    -0xc(%ebp),%eax
  1003b8:	8d 50 01             	lea    0x1(%eax),%edx
  1003bb:	89 55 f4             	mov    %edx,-0xc(%ebp)
  1003be:	c6 44 05 e0 2d       	movb   $0x2d,-0x20(%ebp,%eax,1)
  1003c3:	eb 1a                	jmp    1003df <printint+0x9e>
  1003c5:	8d 55 e0             	lea    -0x20(%ebp),%edx
  1003c8:	8b 45 f4             	mov    -0xc(%ebp),%eax
  1003cb:	01 d0                	add    %edx,%eax
  1003cd:	0f b6 00             	movzbl (%eax),%eax
  1003d0:	0f be c0             	movsbl %al,%eax
  1003d3:	83 ec 0c             	sub    $0xc,%esp
  1003d6:	50                   	push   %eax
  1003d7:	e8 c6 03 00 00       	call   1007a2 <consputc>
  1003dc:	83 c4 10             	add    $0x10,%esp
  1003df:	83 6d f4 01          	subl   $0x1,-0xc(%ebp)
  1003e3:	83 7d f4 00          	cmpl   $0x0,-0xc(%ebp)
  1003e7:	79 dc                	jns    1003c5 <printint+0x84>
  1003e9:	90                   	nop
  1003ea:	c9                   	leave  
  1003eb:	c3                   	ret    

001003ec <cprintf>:
  1003ec:	55                   	push   %ebp
  1003ed:	89 e5                	mov    %esp,%ebp
  1003ef:	83 ec 28             	sub    $0x28,%esp
  1003f2:	a1 14 cb 10 00       	mov    0x10cb14,%eax
  1003f7:	89 45 e8             	mov    %eax,-0x18(%ebp)
  1003fa:	83 7d e8 00          	cmpl   $0x0,-0x18(%ebp)
  1003fe:	74 10                	je     100410 <cprintf+0x24>
  100400:	83 ec 0c             	sub    $0xc,%esp
  100403:	68 e0 ca 10 00       	push   $0x10cae0
  100408:	e8 3b 45 00 00       	call   104948 <acquire>
  10040d:	83 c4 10             	add    $0x10,%esp
  100410:	8d 45 0c             	lea    0xc(%ebp),%eax
  100413:	89 45 f0             	mov    %eax,-0x10(%ebp)
  100416:	c7 45 f4 00 00 00 00 	movl   $0x0,-0xc(%ebp)
  10041d:	e9 1a 01 00 00       	jmp    10053c <cprintf+0x150>
  100422:	83 7d e4 25          	cmpl   $0x25,-0x1c(%ebp)
  100426:	74 13                	je     10043b <cprintf+0x4f>
  100428:	83 ec 0c             	sub    $0xc,%esp
  10042b:	ff 75 e4             	pushl  -0x1c(%ebp)
  10042e:	e8 6f 03 00 00       	call   1007a2 <consputc>
  100433:	83 c4 10             	add    $0x10,%esp
  100436:	e9 fd 00 00 00       	jmp    100538 <cprintf+0x14c>
  10043b:	8b 55 08             	mov    0x8(%ebp),%edx
  10043e:	83 45 f4 01          	addl   $0x1,-0xc(%ebp)
  100442:	8b 45 f4             	mov    -0xc(%ebp),%eax
  100445:	01 d0                	add    %edx,%eax
  100447:	0f b6 00             	movzbl (%eax),%eax
  10044a:	0f be c0             	movsbl %al,%eax
  10044d:	25 ff 00 00 00       	and    $0xff,%eax
  100452:	89 45 e4             	mov    %eax,-0x1c(%ebp)
  100455:	83 7d e4 00          	cmpl   $0x0,-0x1c(%ebp)
  100459:	0f 84 ff 00 00 00    	je     10055e <cprintf+0x172>
  10045f:	8b 45 e4             	mov    -0x1c(%ebp),%eax
  100462:	83 f8 70             	cmp    $0x70,%eax
  100465:	74 47                	je     1004ae <cprintf+0xc2>
  100467:	83 f8 70             	cmp    $0x70,%eax
  10046a:	7f 13                	jg     10047f <cprintf+0x93>
  10046c:	83 f8 25             	cmp    $0x25,%eax
  10046f:	0f 84 98 00 00 00    	je     10050d <cprintf+0x121>
  100475:	83 f8 64             	cmp    $0x64,%eax
  100478:	74 14                	je     10048e <cprintf+0xa2>
  10047a:	e9 9d 00 00 00       	jmp    10051c <cprintf+0x130>
  10047f:	83 f8 73             	cmp    $0x73,%eax
  100482:	74 47                	je     1004cb <cprintf+0xdf>
  100484:	83 f8 78             	cmp    $0x78,%eax
  100487:	74 25                	je     1004ae <cprintf+0xc2>
  100489:	e9 8e 00 00 00       	jmp    10051c <cprintf+0x130>
  10048e:	8b 45 f0             	mov    -0x10(%ebp),%eax
  100491:	8d 50 04             	lea    0x4(%eax),%edx
  100494:	89 55 f0             	mov    %edx,-0x10(%ebp)
  100497:	8b 00                	mov    (%eax),%eax
  100499:	83 ec 04             	sub    $0x4,%esp
  10049c:	6a 01                	push   $0x1
  10049e:	6a 0a                	push   $0xa
  1004a0:	50                   	push   %eax
  1004a1:	e8 9b fe ff ff       	call   100341 <printint>
  1004a6:	83 c4 10             	add    $0x10,%esp
  1004a9:	e9 8a 00 00 00       	jmp    100538 <cprintf+0x14c>
  1004ae:	8b 45 f0             	mov    -0x10(%ebp),%eax
  1004b1:	8d 50 04             	lea    0x4(%eax),%edx
  1004b4:	89 55 f0             	mov    %edx,-0x10(%ebp)
  1004b7:	8b 00                	mov    (%eax),%eax
  1004b9:	83 ec 04             	sub    $0x4,%esp
  1004bc:	6a 00                	push   $0x0
  1004be:	6a 10                	push   $0x10
  1004c0:	50                   	push   %eax
  1004c1:	e8 7b fe ff ff       	call   100341 <printint>
  1004c6:	83 c4 10             	add    $0x10,%esp
  1004c9:	eb 6d                	jmp    100538 <cprintf+0x14c>
  1004cb:	8b 45 f0             	mov    -0x10(%ebp),%eax
  1004ce:	8d 50 04             	lea    0x4(%eax),%edx
  1004d1:	89 55 f0             	mov    %edx,-0x10(%ebp)
  1004d4:	8b 00                	mov    (%eax),%eax
  1004d6:	89 45 ec             	mov    %eax,-0x14(%ebp)
  1004d9:	83 7d ec 00          	cmpl   $0x0,-0x14(%ebp)
  1004dd:	75 22                	jne    100501 <cprintf+0x115>
  1004df:	c7 45 ec 06 8e 10 00 	movl   $0x108e06,-0x14(%ebp)
  1004e6:	eb 19                	jmp    100501 <cprintf+0x115>
  1004e8:	8b 45 ec             	mov    -0x14(%ebp),%eax
  1004eb:	0f b6 00             	movzbl (%eax),%eax
  1004ee:	0f be c0             	movsbl %al,%eax
  1004f1:	83 ec 0c             	sub    $0xc,%esp
  1004f4:	50                   	push   %eax
  1004f5:	e8 a8 02 00 00       	call   1007a2 <consputc>
  1004fa:	83 c4 10             	add    $0x10,%esp
  1004fd:	83 45 ec 01          	addl   $0x1,-0x14(%ebp)
  100501:	8b 45 ec             	mov    -0x14(%ebp),%eax
  100504:	0f b6 00             	movzbl (%eax),%eax
  100507:	84 c0                	test   %al,%al
  100509:	75 dd                	jne    1004e8 <cprintf+0xfc>
  10050b:	eb 2b                	jmp    100538 <cprintf+0x14c>
  10050d:	83 ec 0c             	sub    $0xc,%esp
  100510:	6a 25                	push   $0x25
  100512:	e8 8b 02 00 00       	call   1007a2 <consputc>
  100517:	83 c4 10             	add    $0x10,%esp
  10051a:	eb 1c                	jmp    100538 <cprintf+0x14c>
  10051c:	83 ec 0c             	sub    $0xc,%esp
  10051f:	6a 25                	push   $0x25
  100521:	e8 7c 02 00 00       	call   1007a2 <consputc>
  100526:	83 c4 10             	add    $0x10,%esp
  100529:	83 ec 0c             	sub    $0xc,%esp
  10052c:	ff 75 e4             	pushl  -0x1c(%ebp)
  10052f:	e8 6e 02 00 00       	call   1007a2 <consputc>
  100534:	83 c4 10             	add    $0x10,%esp
  100537:	90                   	nop
  100538:	83 45 f4 01          	addl   $0x1,-0xc(%ebp)
  10053c:	8b 55 08             	mov    0x8(%ebp),%edx
  10053f:	8b 45 f4             	mov    -0xc(%ebp),%eax
  100542:	01 d0                	add    %edx,%eax
  100544:	0f b6 00             	movzbl (%eax),%eax
  100547:	0f be c0             	movsbl %al,%eax
  10054a:	25 ff 00 00 00       	and    $0xff,%eax
  10054f:	89 45 e4             	mov    %eax,-0x1c(%ebp)
  100552:	83 7d e4 00          	cmpl   $0x0,-0x1c(%ebp)
  100556:	0f 85 c6 fe ff ff    	jne    100422 <cprintf+0x36>
  10055c:	eb 01                	jmp    10055f <cprintf+0x173>
  10055e:	90                   	nop
  10055f:	83 7d e8 00          	cmpl   $0x0,-0x18(%ebp)
  100563:	74 10                	je     100575 <cprintf+0x189>
  100565:	83 ec 0c             	sub    $0xc,%esp
  100568:	68 e0 ca 10 00       	push   $0x10cae0
  10056d:	e8 3d 44 00 00       	call   1049af <release>
  100572:	83 c4 10             	add    $0x10,%esp
  100575:	90                   	nop
  100576:	c9                   	leave  
  100577:	c3                   	ret    

00100578 <panic>:
  100578:	55                   	push   %ebp
  100579:	89 e5                	mov    %esp,%ebp
  10057b:	83 ec 38             	sub    $0x38,%esp
  10057e:	e8 b7 fd ff ff       	call   10033a <cli>
  100583:	c7 05 14 cb 10 00 00 	movl   $0x0,0x10cb14
  10058a:	00 00 00 
  10058d:	65 a1 00 00 00 00    	mov    %gs:0x0,%eax
  100593:	0f b6 00             	movzbl (%eax),%eax
  100596:	0f b6 c0             	movzbl %al,%eax
  100599:	83 ec 08             	sub    $0x8,%esp
  10059c:	50                   	push   %eax
  10059d:	68 0d 8e 10 00       	push   $0x108e0d
  1005a2:	e8 45 fe ff ff       	call   1003ec <cprintf>
  1005a7:	83 c4 10             	add    $0x10,%esp
  1005aa:	8b 45 08             	mov    0x8(%ebp),%eax
  1005ad:	83 ec 0c             	sub    $0xc,%esp
  1005b0:	50                   	push   %eax
  1005b1:	e8 36 fe ff ff       	call   1003ec <cprintf>
  1005b6:	83 c4 10             	add    $0x10,%esp
  1005b9:	83 ec 0c             	sub    $0xc,%esp
  1005bc:	68 1c 8e 10 00       	push   $0x108e1c
  1005c1:	e8 26 fe ff ff       	call   1003ec <cprintf>
  1005c6:	83 c4 10             	add    $0x10,%esp
  1005c9:	83 ec 08             	sub    $0x8,%esp
  1005cc:	8d 45 cc             	lea    -0x34(%ebp),%eax
  1005cf:	50                   	push   %eax
  1005d0:	8d 45 08             	lea    0x8(%ebp),%eax
  1005d3:	50                   	push   %eax
  1005d4:	e8 28 44 00 00       	call   104a01 <getcallerpcs>
  1005d9:	83 c4 10             	add    $0x10,%esp
  1005dc:	c7 45 f4 00 00 00 00 	movl   $0x0,-0xc(%ebp)
  1005e3:	eb 1c                	jmp    100601 <panic+0x89>
  1005e5:	8b 45 f4             	mov    -0xc(%ebp),%eax
  1005e8:	8b 44 85 cc          	mov    -0x34(%ebp,%eax,4),%eax
  1005ec:	83 ec 08             	sub    $0x8,%esp
  1005ef:	50                   	push   %eax
  1005f0:	68 1e 8e 10 00       	push   $0x108e1e
  1005f5:	e8 f2 fd ff ff       	call   1003ec <cprintf>
  1005fa:	83 c4 10             	add    $0x10,%esp
  1005fd:	83 45 f4 01          	addl   $0x1,-0xc(%ebp)
  100601:	83 7d f4 09          	cmpl   $0x9,-0xc(%ebp)
  100605:	7e de                	jle    1005e5 <panic+0x6d>
  100607:	c7 05 c0 ca 10 00 01 	movl   $0x1,0x10cac0
  10060e:	00 00 00 
  100611:	83 ec 08             	sub    $0x8,%esp
  100614:	6a 00                	push   $0x0
  100616:	68 f4 00 00 00       	push   $0xf4
  10061b:	e8 fb fc ff ff       	call   10031b <outb>
  100620:	83 c4 10             	add    $0x10,%esp
  100623:	eb fe                	jmp    100623 <panic+0xab>

00100625 <cgaputc>:
  100625:	55                   	push   %ebp
  100626:	89 e5                	mov    %esp,%ebp
  100628:	53                   	push   %ebx
  100629:	83 ec 14             	sub    $0x14,%esp
  10062c:	6a 0e                	push   $0xe
  10062e:	68 d4 03 00 00       	push   $0x3d4
  100633:	e8 e3 fc ff ff       	call   10031b <outb>
  100638:	83 c4 08             	add    $0x8,%esp
  10063b:	68 d5 03 00 00       	push   $0x3d5
  100640:	e8 b9 fc ff ff       	call   1002fe <inb>
  100645:	83 c4 04             	add    $0x4,%esp
  100648:	0f b6 c0             	movzbl %al,%eax
  10064b:	c1 e0 08             	shl    $0x8,%eax
  10064e:	89 45 f4             	mov    %eax,-0xc(%ebp)
  100651:	6a 0f                	push   $0xf
  100653:	68 d4 03 00 00       	push   $0x3d4
  100658:	e8 be fc ff ff       	call   10031b <outb>
  10065d:	83 c4 08             	add    $0x8,%esp
  100660:	68 d5 03 00 00       	push   $0x3d5
  100665:	e8 94 fc ff ff       	call   1002fe <inb>
  10066a:	83 c4 04             	add    $0x4,%esp
  10066d:	0f b6 c0             	movzbl %al,%eax
  100670:	09 45 f4             	or     %eax,-0xc(%ebp)
  100673:	83 7d 08 0a          	cmpl   $0xa,0x8(%ebp)
  100677:	75 30                	jne    1006a9 <cgaputc+0x84>
  100679:	8b 4d f4             	mov    -0xc(%ebp),%ecx
  10067c:	ba 67 66 66 66       	mov    $0x66666667,%edx
  100681:	89 c8                	mov    %ecx,%eax
  100683:	f7 ea                	imul   %edx
  100685:	c1 fa 05             	sar    $0x5,%edx
  100688:	89 c8                	mov    %ecx,%eax
  10068a:	c1 f8 1f             	sar    $0x1f,%eax
  10068d:	29 c2                	sub    %eax,%edx
  10068f:	89 d0                	mov    %edx,%eax
  100691:	c1 e0 02             	shl    $0x2,%eax
  100694:	01 d0                	add    %edx,%eax
  100696:	c1 e0 04             	shl    $0x4,%eax
  100699:	29 c1                	sub    %eax,%ecx
  10069b:	89 ca                	mov    %ecx,%edx
  10069d:	b8 50 00 00 00       	mov    $0x50,%eax
  1006a2:	29 d0                	sub    %edx,%eax
  1006a4:	01 45 f4             	add    %eax,-0xc(%ebp)
  1006a7:	eb 38                	jmp    1006e1 <cgaputc+0xbc>
  1006a9:	81 7d 08 00 01 00 00 	cmpl   $0x100,0x8(%ebp)
  1006b0:	75 0c                	jne    1006be <cgaputc+0x99>
  1006b2:	83 7d f4 00          	cmpl   $0x0,-0xc(%ebp)
  1006b6:	7e 29                	jle    1006e1 <cgaputc+0xbc>
  1006b8:	83 6d f4 01          	subl   $0x1,-0xc(%ebp)
  1006bc:	eb 23                	jmp    1006e1 <cgaputc+0xbc>
  1006be:	8b 45 08             	mov    0x8(%ebp),%eax
  1006c1:	0f b6 c0             	movzbl %al,%eax
  1006c4:	80 cc 07             	or     $0x7,%ah
  1006c7:	89 c3                	mov    %eax,%ebx
  1006c9:	8b 0d 04 c0 10 00    	mov    0x10c004,%ecx
  1006cf:	8b 45 f4             	mov    -0xc(%ebp),%eax
  1006d2:	8d 50 01             	lea    0x1(%eax),%edx
  1006d5:	89 55 f4             	mov    %edx,-0xc(%ebp)
  1006d8:	01 c0                	add    %eax,%eax
  1006da:	01 c8                	add    %ecx,%eax
  1006dc:	89 da                	mov    %ebx,%edx
  1006de:	66 89 10             	mov    %dx,(%eax)
  1006e1:	81 7d f4 7f 07 00 00 	cmpl   $0x77f,-0xc(%ebp)
  1006e8:	7e 4c                	jle    100736 <cgaputc+0x111>
  1006ea:	a1 04 c0 10 00       	mov    0x10c004,%eax
  1006ef:	8d 90 a0 00 00 00    	lea    0xa0(%eax),%edx
  1006f5:	a1 04 c0 10 00       	mov    0x10c004,%eax
  1006fa:	83 ec 04             	sub    $0x4,%esp
  1006fd:	68 60 0e 00 00       	push   $0xe60
  100702:	52                   	push   %edx
  100703:	50                   	push   %eax
  100704:	e8 ee 44 00 00       	call   104bf7 <memmove>
  100709:	83 c4 10             	add    $0x10,%esp
  10070c:	83 6d f4 50          	subl   $0x50,-0xc(%ebp)
  100710:	b8 80 07 00 00       	mov    $0x780,%eax
  100715:	2b 45 f4             	sub    -0xc(%ebp),%eax
  100718:	8d 14 00             	lea    (%eax,%eax,1),%edx
  10071b:	a1 04 c0 10 00       	mov    0x10c004,%eax
  100720:	8b 4d f4             	mov    -0xc(%ebp),%ecx
  100723:	01 c9                	add    %ecx,%ecx
  100725:	01 c8                	add    %ecx,%eax
  100727:	83 ec 04             	sub    $0x4,%esp
  10072a:	52                   	push   %edx
  10072b:	6a 00                	push   $0x0
  10072d:	50                   	push   %eax
  10072e:	e8 52 44 00 00       	call   104b85 <memset>
  100733:	83 c4 10             	add    $0x10,%esp
  100736:	83 ec 08             	sub    $0x8,%esp
  100739:	6a 0e                	push   $0xe
  10073b:	68 d4 03 00 00       	push   $0x3d4
  100740:	e8 d6 fb ff ff       	call   10031b <outb>
  100745:	83 c4 10             	add    $0x10,%esp
  100748:	8b 45 f4             	mov    -0xc(%ebp),%eax
  10074b:	c1 f8 08             	sar    $0x8,%eax
  10074e:	0f b6 c0             	movzbl %al,%eax
  100751:	83 ec 08             	sub    $0x8,%esp
  100754:	50                   	push   %eax
  100755:	68 d5 03 00 00       	push   $0x3d5
  10075a:	e8 bc fb ff ff       	call   10031b <outb>
  10075f:	83 c4 10             	add    $0x10,%esp
  100762:	83 ec 08             	sub    $0x8,%esp
  100765:	6a 0f                	push   $0xf
  100767:	68 d4 03 00 00       	push   $0x3d4
  10076c:	e8 aa fb ff ff       	call   10031b <outb>
  100771:	83 c4 10             	add    $0x10,%esp
  100774:	8b 45 f4             	mov    -0xc(%ebp),%eax
  100777:	0f b6 c0             	movzbl %al,%eax
  10077a:	83 ec 08             	sub    $0x8,%esp
  10077d:	50                   	push   %eax
  10077e:	68 d5 03 00 00       	push   $0x3d5
  100783:	e8 93 fb ff ff       	call   10031b <outb>
  100788:	83 c4 10             	add    $0x10,%esp
  10078b:	a1 04 c0 10 00       	mov    0x10c004,%eax
  100790:	8b 55 f4             	mov    -0xc(%ebp),%edx
  100793:	01 d2                	add    %edx,%edx
  100795:	01 d0                	add    %edx,%eax
  100797:	66 c7 00 20 07       	movw   $0x720,(%eax)
  10079c:	90                   	nop
  10079d:	8b 5d fc             	mov    -0x4(%ebp),%ebx
  1007a0:	c9                   	leave  
  1007a1:	c3                   	ret    

001007a2 <consputc>:
  1007a2:	55                   	push   %ebp
  1007a3:	89 e5                	mov    %esp,%ebp
  1007a5:	83 ec 08             	sub    $0x8,%esp
  1007a8:	a1 c0 ca 10 00       	mov    0x10cac0,%eax
  1007ad:	85 c0                	test   %eax,%eax
  1007af:	74 07                	je     1007b8 <consputc+0x16>
  1007b1:	e8 84 fb ff ff       	call   10033a <cli>
  1007b6:	eb fe                	jmp    1007b6 <consputc+0x14>
  1007b8:	81 7d 08 00 01 00 00 	cmpl   $0x100,0x8(%ebp)
  1007bf:	75 29                	jne    1007ea <consputc+0x48>
  1007c1:	83 ec 0c             	sub    $0xc,%esp
  1007c4:	6a 08                	push   $0x8
  1007c6:	e8 e2 5c 00 00       	call   1064ad <uartputc>
  1007cb:	83 c4 10             	add    $0x10,%esp
  1007ce:	83 ec 0c             	sub    $0xc,%esp
  1007d1:	6a 20                	push   $0x20
  1007d3:	e8 d5 5c 00 00       	call   1064ad <uartputc>
  1007d8:	83 c4 10             	add    $0x10,%esp
  1007db:	83 ec 0c             	sub    $0xc,%esp
  1007de:	6a 08                	push   $0x8
  1007e0:	e8 c8 5c 00 00       	call   1064ad <uartputc>
  1007e5:	83 c4 10             	add    $0x10,%esp
  1007e8:	eb 0e                	jmp    1007f8 <consputc+0x56>
  1007ea:	83 ec 0c             	sub    $0xc,%esp
  1007ed:	ff 75 08             	pushl  0x8(%ebp)
  1007f0:	e8 b8 5c 00 00       	call   1064ad <uartputc>
  1007f5:	83 c4 10             	add    $0x10,%esp
  1007f8:	83 ec 0c             	sub    $0xc,%esp
  1007fb:	ff 75 08             	pushl  0x8(%ebp)
  1007fe:	e8 22 fe ff ff       	call   100625 <cgaputc>
  100803:	83 c4 10             	add    $0x10,%esp
  100806:	90                   	nop
  100807:	c9                   	leave  
  100808:	c3                   	ret    

00100809 <consoleintr>:
  100809:	55                   	push   %ebp
  10080a:	89 e5                	mov    %esp,%ebp
  10080c:	83 ec 18             	sub    $0x18,%esp
  10080f:	83 ec 0c             	sub    $0xc,%esp
  100812:	68 c0 f2 10 00       	push   $0x10f2c0
  100817:	e8 2c 41 00 00       	call   104948 <acquire>
  10081c:	83 c4 10             	add    $0x10,%esp
  10081f:	e9 42 01 00 00       	jmp    100966 <consoleintr+0x15d>
  100824:	8b 45 f4             	mov    -0xc(%ebp),%eax
  100827:	83 f8 10             	cmp    $0x10,%eax
  10082a:	74 1e                	je     10084a <consoleintr+0x41>
  10082c:	83 f8 10             	cmp    $0x10,%eax
  10082f:	7f 0a                	jg     10083b <consoleintr+0x32>
  100831:	83 f8 08             	cmp    $0x8,%eax
  100834:	74 69                	je     10089f <consoleintr+0x96>
  100836:	e9 99 00 00 00       	jmp    1008d4 <consoleintr+0xcb>
  10083b:	83 f8 15             	cmp    $0x15,%eax
  10083e:	74 31                	je     100871 <consoleintr+0x68>
  100840:	83 f8 7f             	cmp    $0x7f,%eax
  100843:	74 5a                	je     10089f <consoleintr+0x96>
  100845:	e9 8a 00 00 00       	jmp    1008d4 <consoleintr+0xcb>
  10084a:	e8 a6 3f 00 00       	call   1047f5 <procdump>
  10084f:	e9 12 01 00 00       	jmp    100966 <consoleintr+0x15d>
  100854:	a1 7c f3 10 00       	mov    0x10f37c,%eax
  100859:	83 e8 01             	sub    $0x1,%eax
  10085c:	a3 7c f3 10 00       	mov    %eax,0x10f37c
  100861:	83 ec 0c             	sub    $0xc,%esp
  100864:	68 00 01 00 00       	push   $0x100
  100869:	e8 34 ff ff ff       	call   1007a2 <consputc>
  10086e:	83 c4 10             	add    $0x10,%esp
  100871:	8b 15 7c f3 10 00    	mov    0x10f37c,%edx
  100877:	a1 78 f3 10 00       	mov    0x10f378,%eax
  10087c:	39 c2                	cmp    %eax,%edx
  10087e:	0f 84 e2 00 00 00    	je     100966 <consoleintr+0x15d>
  100884:	a1 7c f3 10 00       	mov    0x10f37c,%eax
  100889:	83 e8 01             	sub    $0x1,%eax
  10088c:	83 e0 7f             	and    $0x7f,%eax
  10088f:	0f b6 80 f4 f2 10 00 	movzbl 0x10f2f4(%eax),%eax
  100896:	3c 0a                	cmp    $0xa,%al
  100898:	75 ba                	jne    100854 <consoleintr+0x4b>
  10089a:	e9 c7 00 00 00       	jmp    100966 <consoleintr+0x15d>
  10089f:	8b 15 7c f3 10 00    	mov    0x10f37c,%edx
  1008a5:	a1 78 f3 10 00       	mov    0x10f378,%eax
  1008aa:	39 c2                	cmp    %eax,%edx
  1008ac:	0f 84 b4 00 00 00    	je     100966 <consoleintr+0x15d>
  1008b2:	a1 7c f3 10 00       	mov    0x10f37c,%eax
  1008b7:	83 e8 01             	sub    $0x1,%eax
  1008ba:	a3 7c f3 10 00       	mov    %eax,0x10f37c
  1008bf:	83 ec 0c             	sub    $0xc,%esp
  1008c2:	68 00 01 00 00       	push   $0x100
  1008c7:	e8 d6 fe ff ff       	call   1007a2 <consputc>
  1008cc:	83 c4 10             	add    $0x10,%esp
  1008cf:	e9 92 00 00 00       	jmp    100966 <consoleintr+0x15d>
  1008d4:	83 7d f4 00          	cmpl   $0x0,-0xc(%ebp)
  1008d8:	0f 84 87 00 00 00    	je     100965 <consoleintr+0x15c>
  1008de:	8b 15 7c f3 10 00    	mov    0x10f37c,%edx
  1008e4:	a1 74 f3 10 00       	mov    0x10f374,%eax
  1008e9:	29 c2                	sub    %eax,%edx
  1008eb:	89 d0                	mov    %edx,%eax
  1008ed:	83 f8 7f             	cmp    $0x7f,%eax
  1008f0:	77 73                	ja     100965 <consoleintr+0x15c>
  1008f2:	83 7d f4 0d          	cmpl   $0xd,-0xc(%ebp)
  1008f6:	74 05                	je     1008fd <consoleintr+0xf4>
  1008f8:	8b 45 f4             	mov    -0xc(%ebp),%eax
  1008fb:	eb 05                	jmp    100902 <consoleintr+0xf9>
  1008fd:	b8 0a 00 00 00       	mov    $0xa,%eax
  100902:	89 45 f4             	mov    %eax,-0xc(%ebp)
  100905:	a1 7c f3 10 00       	mov    0x10f37c,%eax
  10090a:	8d 50 01             	lea    0x1(%eax),%edx
  10090d:	89 15 7c f3 10 00    	mov    %edx,0x10f37c
  100913:	83 e0 7f             	and    $0x7f,%eax
  100916:	8b 55 f4             	mov    -0xc(%ebp),%edx
  100919:	88 90 f4 f2 10 00    	mov    %dl,0x10f2f4(%eax)
  10091f:	83 ec 0c             	sub    $0xc,%esp
  100922:	ff 75 f4             	pushl  -0xc(%ebp)
  100925:	e8 78 fe ff ff       	call   1007a2 <consputc>
  10092a:	83 c4 10             	add    $0x10,%esp
  10092d:	83 7d f4 0a          	cmpl   $0xa,-0xc(%ebp)
  100931:	74 18                	je     10094b <consoleintr+0x142>
  100933:	83 7d f4 04          	cmpl   $0x4,-0xc(%ebp)
  100937:	74 12                	je     10094b <consoleintr+0x142>
  100939:	a1 7c f3 10 00       	mov    0x10f37c,%eax
  10093e:	8b 15 74 f3 10 00    	mov    0x10f374,%edx
  100944:	83 ea 80             	sub    $0xffffff80,%edx
  100947:	39 d0                	cmp    %edx,%eax
  100949:	75 1a                	jne    100965 <consoleintr+0x15c>
  10094b:	a1 7c f3 10 00       	mov    0x10f37c,%eax
  100950:	a3 78 f3 10 00       	mov    %eax,0x10f378
  100955:	83 ec 0c             	sub    $0xc,%esp
  100958:	68 74 f3 10 00       	push   $0x10f374
  10095d:	e8 d8 3d 00 00       	call   10473a <wakeup>
  100962:	83 c4 10             	add    $0x10,%esp
  100965:	90                   	nop
  100966:	8b 45 08             	mov    0x8(%ebp),%eax
  100969:	ff d0                	call   *%eax
  10096b:	89 45 f4             	mov    %eax,-0xc(%ebp)
  10096e:	83 7d f4 00          	cmpl   $0x0,-0xc(%ebp)
  100972:	0f 89 ac fe ff ff    	jns    100824 <consoleintr+0x1b>
  100978:	83 ec 0c             	sub    $0xc,%esp
  10097b:	68 c0 f2 10 00       	push   $0x10f2c0
  100980:	e8 2a 40 00 00       	call   1049af <release>
  100985:	83 c4 10             	add    $0x10,%esp
  100988:	90                   	nop
  100989:	c9                   	leave  
  10098a:	c3                   	ret    

0010098b <consoleread>:
  10098b:	55                   	push   %ebp
  10098c:	89 e5                	mov    %esp,%ebp
  10098e:	83 ec 18             	sub    $0x18,%esp
  100991:	83 ec 0c             	sub    $0xc,%esp
  100994:	ff 75 08             	pushl  0x8(%ebp)
  100997:	e8 4b 10 00 00       	call   1019e7 <iunlock>
  10099c:	83 c4 10             	add    $0x10,%esp
  10099f:	8b 45 10             	mov    0x10(%ebp),%eax
  1009a2:	89 45 f4             	mov    %eax,-0xc(%ebp)
  1009a5:	83 ec 0c             	sub    $0xc,%esp
  1009a8:	68 c0 f2 10 00       	push   $0x10f2c0
  1009ad:	e8 96 3f 00 00       	call   104948 <acquire>
  1009b2:	83 c4 10             	add    $0x10,%esp
  1009b5:	e9 ac 00 00 00       	jmp    100a66 <consoleread+0xdb>
  1009ba:	65 a1 04 00 00 00    	mov    %gs:0x4,%eax
  1009c0:	8b 40 24             	mov    0x24(%eax),%eax
  1009c3:	85 c0                	test   %eax,%eax
  1009c5:	74 28                	je     1009ef <consoleread+0x64>
  1009c7:	83 ec 0c             	sub    $0xc,%esp
  1009ca:	68 c0 f2 10 00       	push   $0x10f2c0
  1009cf:	e8 db 3f 00 00       	call   1049af <release>
  1009d4:	83 c4 10             	add    $0x10,%esp
  1009d7:	83 ec 0c             	sub    $0xc,%esp
  1009da:	ff 75 08             	pushl  0x8(%ebp)
  1009dd:	e8 93 0e 00 00       	call   101875 <ilock>
  1009e2:	83 c4 10             	add    $0x10,%esp
  1009e5:	b8 ff ff ff ff       	mov    $0xffffffff,%eax
  1009ea:	e9 ab 00 00 00       	jmp    100a9a <consoleread+0x10f>
  1009ef:	83 ec 08             	sub    $0x8,%esp
  1009f2:	68 c0 f2 10 00       	push   $0x10f2c0
  1009f7:	68 74 f3 10 00       	push   $0x10f374
  1009fc:	e8 4e 3c 00 00       	call   10464f <sleep>
  100a01:	83 c4 10             	add    $0x10,%esp
  100a04:	8b 15 74 f3 10 00    	mov    0x10f374,%edx
  100a0a:	a1 78 f3 10 00       	mov    0x10f378,%eax
  100a0f:	39 c2                	cmp    %eax,%edx
  100a11:	74 a7                	je     1009ba <consoleread+0x2f>
  100a13:	a1 74 f3 10 00       	mov    0x10f374,%eax
  100a18:	8d 50 01             	lea    0x1(%eax),%edx
  100a1b:	89 15 74 f3 10 00    	mov    %edx,0x10f374
  100a21:	83 e0 7f             	and    $0x7f,%eax
  100a24:	0f b6 80 f4 f2 10 00 	movzbl 0x10f2f4(%eax),%eax
  100a2b:	0f be c0             	movsbl %al,%eax
  100a2e:	89 45 f0             	mov    %eax,-0x10(%ebp)
  100a31:	83 7d f0 04          	cmpl   $0x4,-0x10(%ebp)
  100a35:	75 17                	jne    100a4e <consoleread+0xc3>
  100a37:	8b 45 10             	mov    0x10(%ebp),%eax
  100a3a:	39 45 f4             	cmp    %eax,-0xc(%ebp)
  100a3d:	76 2f                	jbe    100a6e <consoleread+0xe3>
  100a3f:	a1 74 f3 10 00       	mov    0x10f374,%eax
  100a44:	83 e8 01             	sub    $0x1,%eax
  100a47:	a3 74 f3 10 00       	mov    %eax,0x10f374
  100a4c:	eb 20                	jmp    100a6e <consoleread+0xe3>
  100a4e:	8b 45 0c             	mov    0xc(%ebp),%eax
  100a51:	8d 50 01             	lea    0x1(%eax),%edx
  100a54:	89 55 0c             	mov    %edx,0xc(%ebp)
  100a57:	8b 55 f0             	mov    -0x10(%ebp),%edx
  100a5a:	88 10                	mov    %dl,(%eax)
  100a5c:	83 6d 10 01          	subl   $0x1,0x10(%ebp)
  100a60:	83 7d f0 0a          	cmpl   $0xa,-0x10(%ebp)
  100a64:	74 0b                	je     100a71 <consoleread+0xe6>
  100a66:	83 7d 10 00          	cmpl   $0x0,0x10(%ebp)
  100a6a:	7f 98                	jg     100a04 <consoleread+0x79>
  100a6c:	eb 04                	jmp    100a72 <consoleread+0xe7>
  100a6e:	90                   	nop
  100a6f:	eb 01                	jmp    100a72 <consoleread+0xe7>
  100a71:	90                   	nop
  100a72:	83 ec 0c             	sub    $0xc,%esp
  100a75:	68 c0 f2 10 00       	push   $0x10f2c0
  100a7a:	e8 30 3f 00 00       	call   1049af <release>
  100a7f:	83 c4 10             	add    $0x10,%esp
  100a82:	83 ec 0c             	sub    $0xc,%esp
  100a85:	ff 75 08             	pushl  0x8(%ebp)
  100a88:	e8 e8 0d 00 00       	call   101875 <ilock>
  100a8d:	83 c4 10             	add    $0x10,%esp
  100a90:	8b 45 10             	mov    0x10(%ebp),%eax
  100a93:	8b 55 f4             	mov    -0xc(%ebp),%edx
  100a96:	29 c2                	sub    %eax,%edx
  100a98:	89 d0                	mov    %edx,%eax
  100a9a:	c9                   	leave  
  100a9b:	c3                   	ret    

00100a9c <consolewrite>:
  100a9c:	55                   	push   %ebp
  100a9d:	89 e5                	mov    %esp,%ebp
  100a9f:	83 ec 18             	sub    $0x18,%esp
  100aa2:	83 ec 0c             	sub    $0xc,%esp
  100aa5:	ff 75 08             	pushl  0x8(%ebp)
  100aa8:	e8 3a 0f 00 00       	call   1019e7 <iunlock>
  100aad:	83 c4 10             	add    $0x10,%esp
  100ab0:	83 ec 0c             	sub    $0xc,%esp
  100ab3:	68 e0 ca 10 00       	push   $0x10cae0
  100ab8:	e8 8b 3e 00 00       	call   104948 <acquire>
  100abd:	83 c4 10             	add    $0x10,%esp
  100ac0:	c7 45 f4 00 00 00 00 	movl   $0x0,-0xc(%ebp)
  100ac7:	eb 21                	jmp    100aea <consolewrite+0x4e>
  100ac9:	8b 55 f4             	mov    -0xc(%ebp),%edx
  100acc:	8b 45 0c             	mov    0xc(%ebp),%eax
  100acf:	01 d0                	add    %edx,%eax
  100ad1:	0f b6 00             	movzbl (%eax),%eax
  100ad4:	0f be c0             	movsbl %al,%eax
  100ad7:	0f b6 c0             	movzbl %al,%eax
  100ada:	83 ec 0c             	sub    $0xc,%esp
  100add:	50                   	push   %eax
  100ade:	e8 bf fc ff ff       	call   1007a2 <consputc>
  100ae3:	83 c4 10             	add    $0x10,%esp
  100ae6:	83 45 f4 01          	addl   $0x1,-0xc(%ebp)
  100aea:	8b 45 f4             	mov    -0xc(%ebp),%eax
  100aed:	3b 45 10             	cmp    0x10(%ebp),%eax
  100af0:	7c d7                	jl     100ac9 <consolewrite+0x2d>
  100af2:	83 ec 0c             	sub    $0xc,%esp
  100af5:	68 e0 ca 10 00       	push   $0x10cae0
  100afa:	e8 b0 3e 00 00       	call   1049af <release>
  100aff:	83 c4 10             	add    $0x10,%esp
  100b02:	83 ec 0c             	sub    $0xc,%esp
  100b05:	ff 75 08             	pushl  0x8(%ebp)
  100b08:	e8 68 0d 00 00       	call   101875 <ilock>
  100b0d:	83 c4 10             	add    $0x10,%esp
  100b10:	8b 45 10             	mov    0x10(%ebp),%eax
  100b13:	c9                   	leave  
  100b14:	c3                   	ret    

00100b15 <consoleinit>:
  100b15:	55                   	push   %ebp
  100b16:	89 e5                	mov    %esp,%ebp
  100b18:	83 ec 08             	sub    $0x8,%esp
  100b1b:	83 ec 08             	sub    $0x8,%esp
  100b1e:	68 22 8e 10 00       	push   $0x108e22
  100b23:	68 e0 ca 10 00       	push   $0x10cae0
  100b28:	e8 f9 3d 00 00       	call   104926 <initlock>
  100b2d:	83 c4 10             	add    $0x10,%esp
  100b30:	83 ec 08             	sub    $0x8,%esp
  100b33:	68 2a 8e 10 00       	push   $0x108e2a
  100b38:	68 c0 f2 10 00       	push   $0x10f2c0
  100b3d:	e8 e4 3d 00 00       	call   104926 <initlock>
  100b42:	83 c4 10             	add    $0x10,%esp
  100b45:	c7 05 2c fd 10 00 9c 	movl   $0x100a9c,0x10fd2c
  100b4c:	0a 10 00 
  100b4f:	c7 05 28 fd 10 00 8b 	movl   $0x10098b,0x10fd28
  100b56:	09 10 00 
  100b59:	c7 05 14 cb 10 00 01 	movl   $0x1,0x10cb14
  100b60:	00 00 00 
  100b63:	83 ec 0c             	sub    $0xc,%esp
  100b66:	6a 01                	push   $0x1
  100b68:	e8 23 2d 00 00       	call   103890 <picenable>
  100b6d:	83 c4 10             	add    $0x10,%esp
  100b70:	83 ec 08             	sub    $0x8,%esp
  100b73:	6a 00                	push   $0x0
  100b75:	6a 01                	push   $0x1
  100b77:	e8 4d 20 00 00       	call   102bc9 <ioapicenable>
  100b7c:	83 c4 10             	add    $0x10,%esp
  100b7f:	90                   	nop
  100b80:	c9                   	leave  
  100b81:	c3                   	ret    

00100b82 <exec>:
  100b82:	55                   	push   %ebp
  100b83:	89 e5                	mov    %esp,%ebp
  100b85:	81 ec 18 01 00 00    	sub    $0x118,%esp
  100b8b:	83 ec 0c             	sub    $0xc,%esp
  100b8e:	ff 75 08             	pushl  0x8(%ebp)
  100b91:	e8 62 19 00 00       	call   1024f8 <namei>
  100b96:	83 c4 10             	add    $0x10,%esp
  100b99:	89 45 d8             	mov    %eax,-0x28(%ebp)
  100b9c:	83 7d d8 00          	cmpl   $0x0,-0x28(%ebp)
  100ba0:	75 0a                	jne    100bac <exec+0x2a>
  100ba2:	b8 ff ff ff ff       	mov    $0xffffffff,%eax
  100ba7:	e9 a7 03 00 00       	jmp    100f53 <exec+0x3d1>
  100bac:	83 ec 0c             	sub    $0xc,%esp
  100baf:	ff 75 d8             	pushl  -0x28(%ebp)
  100bb2:	e8 be 0c 00 00       	call   101875 <ilock>
  100bb7:	83 c4 10             	add    $0x10,%esp
  100bba:	c7 45 d4 00 00 00 00 	movl   $0x0,-0x2c(%ebp)
  100bc1:	6a 34                	push   $0x34
  100bc3:	6a 00                	push   $0x0
  100bc5:	8d 85 0c ff ff ff    	lea    -0xf4(%ebp),%eax
  100bcb:	50                   	push   %eax
  100bcc:	ff 75 d8             	pushl  -0x28(%ebp)
  100bcf:	e8 1e 12 00 00       	call   101df2 <readi>
  100bd4:	83 c4 10             	add    $0x10,%esp
  100bd7:	83 f8 33             	cmp    $0x33,%eax
  100bda:	0f 86 27 03 00 00    	jbe    100f07 <exec+0x385>
  100be0:	8b 85 0c ff ff ff    	mov    -0xf4(%ebp),%eax
  100be6:	3d 7f 45 4c 46       	cmp    $0x464c457f,%eax
  100beb:	0f 85 19 03 00 00    	jne    100f0a <exec+0x388>
  100bf1:	e8 0e 6a 00 00       	call   107604 <setupkvm>
  100bf6:	89 45 d4             	mov    %eax,-0x2c(%ebp)
  100bf9:	83 7d d4 00          	cmpl   $0x0,-0x2c(%ebp)
  100bfd:	0f 84 0a 03 00 00    	je     100f0d <exec+0x38b>
  100c03:	c7 45 e0 00 00 00 00 	movl   $0x0,-0x20(%ebp)
  100c0a:	c7 45 ec 00 00 00 00 	movl   $0x0,-0x14(%ebp)
  100c11:	8b 85 28 ff ff ff    	mov    -0xd8(%ebp),%eax
  100c17:	89 45 e8             	mov    %eax,-0x18(%ebp)
  100c1a:	e9 ab 00 00 00       	jmp    100cca <exec+0x148>
  100c1f:	8b 45 e8             	mov    -0x18(%ebp),%eax
  100c22:	6a 20                	push   $0x20
  100c24:	50                   	push   %eax
  100c25:	8d 85 ec fe ff ff    	lea    -0x114(%ebp),%eax
  100c2b:	50                   	push   %eax
  100c2c:	ff 75 d8             	pushl  -0x28(%ebp)
  100c2f:	e8 be 11 00 00       	call   101df2 <readi>
  100c34:	83 c4 10             	add    $0x10,%esp
  100c37:	83 f8 20             	cmp    $0x20,%eax
  100c3a:	0f 85 d0 02 00 00    	jne    100f10 <exec+0x38e>
  100c40:	8b 85 ec fe ff ff    	mov    -0x114(%ebp),%eax
  100c46:	83 f8 01             	cmp    $0x1,%eax
  100c49:	75 71                	jne    100cbc <exec+0x13a>
  100c4b:	8b 95 00 ff ff ff    	mov    -0x100(%ebp),%edx
  100c51:	8b 85 fc fe ff ff    	mov    -0x104(%ebp),%eax
  100c57:	39 c2                	cmp    %eax,%edx
  100c59:	0f 82 b4 02 00 00    	jb     100f13 <exec+0x391>
  100c5f:	8b 95 f4 fe ff ff    	mov    -0x10c(%ebp),%edx
  100c65:	8b 85 00 ff ff ff    	mov    -0x100(%ebp),%eax
  100c6b:	01 d0                	add    %edx,%eax
  100c6d:	83 ec 04             	sub    $0x4,%esp
  100c70:	50                   	push   %eax
  100c71:	ff 75 e0             	pushl  -0x20(%ebp)
  100c74:	ff 75 d4             	pushl  -0x2c(%ebp)
  100c77:	e8 f9 6c 00 00       	call   107975 <allocuvm>
  100c7c:	83 c4 10             	add    $0x10,%esp
  100c7f:	89 45 e0             	mov    %eax,-0x20(%ebp)
  100c82:	83 7d e0 00          	cmpl   $0x0,-0x20(%ebp)
  100c86:	0f 84 8a 02 00 00    	je     100f16 <exec+0x394>
  100c8c:	8b 95 fc fe ff ff    	mov    -0x104(%ebp),%edx
  100c92:	8b 85 f0 fe ff ff    	mov    -0x110(%ebp),%eax
  100c98:	8b 8d f4 fe ff ff    	mov    -0x10c(%ebp),%ecx
  100c9e:	83 ec 0c             	sub    $0xc,%esp
  100ca1:	52                   	push   %edx
  100ca2:	50                   	push   %eax
  100ca3:	ff 75 d8             	pushl  -0x28(%ebp)
  100ca6:	51                   	push   %ecx
  100ca7:	ff 75 d4             	pushl  -0x2c(%ebp)
  100caa:	e8 ff 6b 00 00       	call   1078ae <loaduvm>
  100caf:	83 c4 20             	add    $0x20,%esp
  100cb2:	85 c0                	test   %eax,%eax
  100cb4:	0f 88 5f 02 00 00    	js     100f19 <exec+0x397>
  100cba:	eb 01                	jmp    100cbd <exec+0x13b>
  100cbc:	90                   	nop
  100cbd:	83 45 ec 01          	addl   $0x1,-0x14(%ebp)
  100cc1:	8b 45 e8             	mov    -0x18(%ebp),%eax
  100cc4:	83 c0 20             	add    $0x20,%eax
  100cc7:	89 45 e8             	mov    %eax,-0x18(%ebp)
  100cca:	0f b7 85 38 ff ff ff 	movzwl -0xc8(%ebp),%eax
  100cd1:	0f b7 c0             	movzwl %ax,%eax
  100cd4:	39 45 ec             	cmp    %eax,-0x14(%ebp)
  100cd7:	0f 8c 42 ff ff ff    	jl     100c1f <exec+0x9d>
  100cdd:	83 ec 0c             	sub    $0xc,%esp
  100ce0:	ff 75 d8             	pushl  -0x28(%ebp)
  100ce3:	e8 61 0e 00 00       	call   101b49 <iunlockput>
  100ce8:	83 c4 10             	add    $0x10,%esp
  100ceb:	c7 45 d8 00 00 00 00 	movl   $0x0,-0x28(%ebp)
  100cf2:	8b 45 e0             	mov    -0x20(%ebp),%eax
  100cf5:	05 ff 0f 00 00       	add    $0xfff,%eax
  100cfa:	25 00 f0 ff ff       	and    $0xfffff000,%eax
  100cff:	89 45 e0             	mov    %eax,-0x20(%ebp)
  100d02:	8b 45 e0             	mov    -0x20(%ebp),%eax
  100d05:	05 00 10 00 00       	add    $0x1000,%eax
  100d0a:	83 ec 04             	sub    $0x4,%esp
  100d0d:	50                   	push   %eax
  100d0e:	ff 75 e0             	pushl  -0x20(%ebp)
  100d11:	ff 75 d4             	pushl  -0x2c(%ebp)
  100d14:	e8 5c 6c 00 00       	call   107975 <allocuvm>
  100d19:	83 c4 10             	add    $0x10,%esp
  100d1c:	89 45 e0             	mov    %eax,-0x20(%ebp)
  100d1f:	83 7d e0 00          	cmpl   $0x0,-0x20(%ebp)
  100d23:	0f 84 f3 01 00 00    	je     100f1c <exec+0x39a>
  100d29:	8b 45 e0             	mov    -0x20(%ebp),%eax
  100d2c:	89 45 dc             	mov    %eax,-0x24(%ebp)
  100d2f:	c7 45 e4 00 00 00 00 	movl   $0x0,-0x1c(%ebp)
  100d36:	e9 90 00 00 00       	jmp    100dcb <exec+0x249>
  100d3b:	83 7d e4 1f          	cmpl   $0x1f,-0x1c(%ebp)
  100d3f:	0f 87 da 01 00 00    	ja     100f1f <exec+0x39d>
  100d45:	8b 45 e4             	mov    -0x1c(%ebp),%eax
  100d48:	8d 14 85 00 00 00 00 	lea    0x0(,%eax,4),%edx
  100d4f:	8b 45 0c             	mov    0xc(%ebp),%eax
  100d52:	01 d0                	add    %edx,%eax
  100d54:	8b 00                	mov    (%eax),%eax
  100d56:	83 ec 0c             	sub    $0xc,%esp
  100d59:	50                   	push   %eax
  100d5a:	e8 26 40 00 00       	call   104d85 <strlen>
  100d5f:	83 c4 10             	add    $0x10,%esp
  100d62:	83 c0 01             	add    $0x1,%eax
  100d65:	29 45 dc             	sub    %eax,-0x24(%ebp)
  100d68:	83 65 dc fc          	andl   $0xfffffffc,-0x24(%ebp)
  100d6c:	8b 45 e4             	mov    -0x1c(%ebp),%eax
  100d6f:	8d 14 85 00 00 00 00 	lea    0x0(,%eax,4),%edx
  100d76:	8b 45 0c             	mov    0xc(%ebp),%eax
  100d79:	01 d0                	add    %edx,%eax
  100d7b:	8b 00                	mov    (%eax),%eax
  100d7d:	83 ec 0c             	sub    $0xc,%esp
  100d80:	50                   	push   %eax
  100d81:	e8 ff 3f 00 00       	call   104d85 <strlen>
  100d86:	83 c4 10             	add    $0x10,%esp
  100d89:	83 c0 01             	add    $0x1,%eax
  100d8c:	89 c1                	mov    %eax,%ecx
  100d8e:	8b 45 e4             	mov    -0x1c(%ebp),%eax
  100d91:	8d 14 85 00 00 00 00 	lea    0x0(,%eax,4),%edx
  100d98:	8b 45 0c             	mov    0xc(%ebp),%eax
  100d9b:	01 d0                	add    %edx,%eax
  100d9d:	8b 00                	mov    (%eax),%eax
  100d9f:	51                   	push   %ecx
  100da0:	50                   	push   %eax
  100da1:	ff 75 dc             	pushl  -0x24(%ebp)
  100da4:	ff 75 d4             	pushl  -0x2c(%ebp)
  100da7:	e8 ee 6e 00 00       	call   107c9a <copyout>
  100dac:	83 c4 10             	add    $0x10,%esp
  100daf:	85 c0                	test   %eax,%eax
  100db1:	0f 88 6b 01 00 00    	js     100f22 <exec+0x3a0>
  100db7:	8b 45 e4             	mov    -0x1c(%ebp),%eax
  100dba:	8d 50 03             	lea    0x3(%eax),%edx
  100dbd:	8b 45 dc             	mov    -0x24(%ebp),%eax
  100dc0:	89 84 95 40 ff ff ff 	mov    %eax,-0xc0(%ebp,%edx,4)
  100dc7:	83 45 e4 01          	addl   $0x1,-0x1c(%ebp)
  100dcb:	8b 45 e4             	mov    -0x1c(%ebp),%eax
  100dce:	8d 14 85 00 00 00 00 	lea    0x0(,%eax,4),%edx
  100dd5:	8b 45 0c             	mov    0xc(%ebp),%eax
  100dd8:	01 d0                	add    %edx,%eax
  100dda:	8b 00                	mov    (%eax),%eax
  100ddc:	85 c0                	test   %eax,%eax
  100dde:	0f 85 57 ff ff ff    	jne    100d3b <exec+0x1b9>
  100de4:	8b 45 e4             	mov    -0x1c(%ebp),%eax
  100de7:	83 c0 03             	add    $0x3,%eax
  100dea:	c7 84 85 40 ff ff ff 	movl   $0x0,-0xc0(%ebp,%eax,4)
  100df1:	00 00 00 00 
  100df5:	c7 85 40 ff ff ff ff 	movl   $0xffffffff,-0xc0(%ebp)
  100dfc:	ff ff ff 
  100dff:	8b 45 e4             	mov    -0x1c(%ebp),%eax
  100e02:	89 85 44 ff ff ff    	mov    %eax,-0xbc(%ebp)
  100e08:	8b 45 e4             	mov    -0x1c(%ebp),%eax
  100e0b:	83 c0 01             	add    $0x1,%eax
  100e0e:	8d 14 85 00 00 00 00 	lea    0x0(,%eax,4),%edx
  100e15:	8b 45 dc             	mov    -0x24(%ebp),%eax
  100e18:	29 d0                	sub    %edx,%eax
  100e1a:	89 85 48 ff ff ff    	mov    %eax,-0xb8(%ebp)
  100e20:	8b 45 e4             	mov    -0x1c(%ebp),%eax
  100e23:	83 c0 04             	add    $0x4,%eax
  100e26:	c1 e0 02             	shl    $0x2,%eax
  100e29:	29 45 dc             	sub    %eax,-0x24(%ebp)
  100e2c:	8b 45 e4             	mov    -0x1c(%ebp),%eax
  100e2f:	83 c0 04             	add    $0x4,%eax
  100e32:	c1 e0 02             	shl    $0x2,%eax
  100e35:	50                   	push   %eax
  100e36:	8d 85 40 ff ff ff    	lea    -0xc0(%ebp),%eax
  100e3c:	50                   	push   %eax
  100e3d:	ff 75 dc             	pushl  -0x24(%ebp)
  100e40:	ff 75 d4             	pushl  -0x2c(%ebp)
  100e43:	e8 52 6e 00 00       	call   107c9a <copyout>
  100e48:	83 c4 10             	add    $0x10,%esp
  100e4b:	85 c0                	test   %eax,%eax
  100e4d:	0f 88 d2 00 00 00    	js     100f25 <exec+0x3a3>
  100e53:	8b 45 08             	mov    0x8(%ebp),%eax
  100e56:	89 45 f4             	mov    %eax,-0xc(%ebp)
  100e59:	8b 45 f4             	mov    -0xc(%ebp),%eax
  100e5c:	89 45 f0             	mov    %eax,-0x10(%ebp)
  100e5f:	eb 17                	jmp    100e78 <exec+0x2f6>
  100e61:	8b 45 f4             	mov    -0xc(%ebp),%eax
  100e64:	0f b6 00             	movzbl (%eax),%eax
  100e67:	3c 2f                	cmp    $0x2f,%al
  100e69:	75 09                	jne    100e74 <exec+0x2f2>
  100e6b:	8b 45 f4             	mov    -0xc(%ebp),%eax
  100e6e:	83 c0 01             	add    $0x1,%eax
  100e71:	89 45 f0             	mov    %eax,-0x10(%ebp)
  100e74:	83 45 f4 01          	addl   $0x1,-0xc(%ebp)
  100e78:	8b 45 f4             	mov    -0xc(%ebp),%eax
  100e7b:	0f b6 00             	movzbl (%eax),%eax
  100e7e:	84 c0                	test   %al,%al
  100e80:	75 df                	jne    100e61 <exec+0x2df>
  100e82:	65 a1 04 00 00 00    	mov    %gs:0x4,%eax
  100e88:	83 c0 6c             	add    $0x6c,%eax
  100e8b:	83 ec 04             	sub    $0x4,%esp
  100e8e:	6a 10                	push   $0x10
  100e90:	ff 75 f0             	pushl  -0x10(%ebp)
  100e93:	50                   	push   %eax
  100e94:	e8 a2 3e 00 00       	call   104d3b <safestrcpy>
  100e99:	83 c4 10             	add    $0x10,%esp
  100e9c:	65 a1 04 00 00 00    	mov    %gs:0x4,%eax
  100ea2:	8b 40 04             	mov    0x4(%eax),%eax
  100ea5:	89 45 d0             	mov    %eax,-0x30(%ebp)
  100ea8:	65 a1 04 00 00 00    	mov    %gs:0x4,%eax
  100eae:	8b 55 d4             	mov    -0x2c(%ebp),%edx
  100eb1:	89 50 04             	mov    %edx,0x4(%eax)
  100eb4:	65 a1 04 00 00 00    	mov    %gs:0x4,%eax
  100eba:	8b 55 e0             	mov    -0x20(%ebp),%edx
  100ebd:	89 10                	mov    %edx,(%eax)
  100ebf:	65 a1 04 00 00 00    	mov    %gs:0x4,%eax
  100ec5:	8b 40 18             	mov    0x18(%eax),%eax
  100ec8:	8b 95 24 ff ff ff    	mov    -0xdc(%ebp),%edx
  100ece:	89 50 38             	mov    %edx,0x38(%eax)
  100ed1:	65 a1 04 00 00 00    	mov    %gs:0x4,%eax
  100ed7:	8b 40 18             	mov    0x18(%eax),%eax
  100eda:	8b 55 dc             	mov    -0x24(%ebp),%edx
  100edd:	89 50 44             	mov    %edx,0x44(%eax)
  100ee0:	65 a1 04 00 00 00    	mov    %gs:0x4,%eax
  100ee6:	83 ec 0c             	sub    $0xc,%esp
  100ee9:	50                   	push   %eax
  100eea:	e8 ec 67 00 00       	call   1076db <switchuvm>
  100eef:	83 c4 10             	add    $0x10,%esp
  100ef2:	83 ec 0c             	sub    $0xc,%esp
  100ef5:	ff 75 d0             	pushl  -0x30(%ebp)
  100ef8:	e8 cf 6b 00 00       	call   107acc <freevm>
  100efd:	83 c4 10             	add    $0x10,%esp
  100f00:	b8 00 00 00 00       	mov    $0x0,%eax
  100f05:	eb 4c                	jmp    100f53 <exec+0x3d1>
  100f07:	90                   	nop
  100f08:	eb 1c                	jmp    100f26 <exec+0x3a4>
  100f0a:	90                   	nop
  100f0b:	eb 19                	jmp    100f26 <exec+0x3a4>
  100f0d:	90                   	nop
  100f0e:	eb 16                	jmp    100f26 <exec+0x3a4>
  100f10:	90                   	nop
  100f11:	eb 13                	jmp    100f26 <exec+0x3a4>
  100f13:	90                   	nop
  100f14:	eb 10                	jmp    100f26 <exec+0x3a4>
  100f16:	90                   	nop
  100f17:	eb 0d                	jmp    100f26 <exec+0x3a4>
  100f19:	90                   	nop
  100f1a:	eb 0a                	jmp    100f26 <exec+0x3a4>
  100f1c:	90                   	nop
  100f1d:	eb 07                	jmp    100f26 <exec+0x3a4>
  100f1f:	90                   	nop
  100f20:	eb 04                	jmp    100f26 <exec+0x3a4>
  100f22:	90                   	nop
  100f23:	eb 01                	jmp    100f26 <exec+0x3a4>
  100f25:	90                   	nop
  100f26:	83 7d d4 00          	cmpl   $0x0,-0x2c(%ebp)
  100f2a:	74 0e                	je     100f3a <exec+0x3b8>
  100f2c:	83 ec 0c             	sub    $0xc,%esp
  100f2f:	ff 75 d4             	pushl  -0x2c(%ebp)
  100f32:	e8 95 6b 00 00       	call   107acc <freevm>
  100f37:	83 c4 10             	add    $0x10,%esp
  100f3a:	83 7d d8 00          	cmpl   $0x0,-0x28(%ebp)
  100f3e:	74 0e                	je     100f4e <exec+0x3cc>
  100f40:	83 ec 0c             	sub    $0xc,%esp
  100f43:	ff 75 d8             	pushl  -0x28(%ebp)
  100f46:	e8 fe 0b 00 00       	call   101b49 <iunlockput>
  100f4b:	83 c4 10             	add    $0x10,%esp
  100f4e:	b8 ff ff ff ff       	mov    $0xffffffff,%eax
  100f53:	c9                   	leave  
  100f54:	c3                   	ret    

00100f55 <fileinit>:
  100f55:	55                   	push   %ebp
  100f56:	89 e5                	mov    %esp,%ebp
  100f58:	83 ec 08             	sub    $0x8,%esp
  100f5b:	83 ec 08             	sub    $0x8,%esp
  100f5e:	68 30 8e 10 00       	push   $0x108e30
  100f63:	68 80 f3 10 00       	push   $0x10f380
  100f68:	e8 b9 39 00 00       	call   104926 <initlock>
  100f6d:	83 c4 10             	add    $0x10,%esp
  100f70:	90                   	nop
  100f71:	c9                   	leave  
  100f72:	c3                   	ret    

00100f73 <filealloc>:
  100f73:	55                   	push   %ebp
  100f74:	89 e5                	mov    %esp,%ebp
  100f76:	83 ec 18             	sub    $0x18,%esp
  100f79:	83 ec 0c             	sub    $0xc,%esp
  100f7c:	68 80 f3 10 00       	push   $0x10f380
  100f81:	e8 c2 39 00 00       	call   104948 <acquire>
  100f86:	83 c4 10             	add    $0x10,%esp
  100f89:	c7 45 f4 b4 f3 10 00 	movl   $0x10f3b4,-0xc(%ebp)
  100f90:	eb 2d                	jmp    100fbf <filealloc+0x4c>
  100f92:	8b 45 f4             	mov    -0xc(%ebp),%eax
  100f95:	8b 40 04             	mov    0x4(%eax),%eax
  100f98:	85 c0                	test   %eax,%eax
  100f9a:	75 1f                	jne    100fbb <filealloc+0x48>
  100f9c:	8b 45 f4             	mov    -0xc(%ebp),%eax
  100f9f:	c7 40 04 01 00 00 00 	movl   $0x1,0x4(%eax)
  100fa6:	83 ec 0c             	sub    $0xc,%esp
  100fa9:	68 80 f3 10 00       	push   $0x10f380
  100fae:	e8 fc 39 00 00       	call   1049af <release>
  100fb3:	83 c4 10             	add    $0x10,%esp
  100fb6:	8b 45 f4             	mov    -0xc(%ebp),%eax
  100fb9:	eb 23                	jmp    100fde <filealloc+0x6b>
  100fbb:	83 45 f4 18          	addl   $0x18,-0xc(%ebp)
  100fbf:	b8 14 fd 10 00       	mov    $0x10fd14,%eax
  100fc4:	39 45 f4             	cmp    %eax,-0xc(%ebp)
  100fc7:	72 c9                	jb     100f92 <filealloc+0x1f>
  100fc9:	83 ec 0c             	sub    $0xc,%esp
  100fcc:	68 80 f3 10 00       	push   $0x10f380
  100fd1:	e8 d9 39 00 00       	call   1049af <release>
  100fd6:	83 c4 10             	add    $0x10,%esp
  100fd9:	b8 00 00 00 00       	mov    $0x0,%eax
  100fde:	c9                   	leave  
  100fdf:	c3                   	ret    

00100fe0 <filedup>:
  100fe0:	55                   	push   %ebp
  100fe1:	89 e5                	mov    %esp,%ebp
  100fe3:	83 ec 08             	sub    $0x8,%esp
  100fe6:	83 ec 0c             	sub    $0xc,%esp
  100fe9:	68 80 f3 10 00       	push   $0x10f380
  100fee:	e8 55 39 00 00       	call   104948 <acquire>
  100ff3:	83 c4 10             	add    $0x10,%esp
  100ff6:	8b 45 08             	mov    0x8(%ebp),%eax
  100ff9:	8b 40 04             	mov    0x4(%eax),%eax
  100ffc:	85 c0                	test   %eax,%eax
  100ffe:	7f 0d                	jg     10100d <filedup+0x2d>
  101000:	83 ec 0c             	sub    $0xc,%esp
  101003:	68 37 8e 10 00       	push   $0x108e37
  101008:	e8 6b f5 ff ff       	call   100578 <panic>
  10100d:	8b 45 08             	mov    0x8(%ebp),%eax
  101010:	8b 40 04             	mov    0x4(%eax),%eax
  101013:	8d 50 01             	lea    0x1(%eax),%edx
  101016:	8b 45 08             	mov    0x8(%ebp),%eax
  101019:	89 50 04             	mov    %edx,0x4(%eax)
  10101c:	83 ec 0c             	sub    $0xc,%esp
  10101f:	68 80 f3 10 00       	push   $0x10f380
  101024:	e8 86 39 00 00       	call   1049af <release>
  101029:	83 c4 10             	add    $0x10,%esp
  10102c:	8b 45 08             	mov    0x8(%ebp),%eax
  10102f:	c9                   	leave  
  101030:	c3                   	ret    

00101031 <fileclose>:
  101031:	55                   	push   %ebp
  101032:	89 e5                	mov    %esp,%ebp
  101034:	83 ec 28             	sub    $0x28,%esp
  101037:	83 ec 0c             	sub    $0xc,%esp
  10103a:	68 80 f3 10 00       	push   $0x10f380
  10103f:	e8 04 39 00 00       	call   104948 <acquire>
  101044:	83 c4 10             	add    $0x10,%esp
  101047:	8b 45 08             	mov    0x8(%ebp),%eax
  10104a:	8b 40 04             	mov    0x4(%eax),%eax
  10104d:	85 c0                	test   %eax,%eax
  10104f:	7f 0d                	jg     10105e <fileclose+0x2d>
  101051:	83 ec 0c             	sub    $0xc,%esp
  101054:	68 3f 8e 10 00       	push   $0x108e3f
  101059:	e8 1a f5 ff ff       	call   100578 <panic>
  10105e:	8b 45 08             	mov    0x8(%ebp),%eax
  101061:	8b 40 04             	mov    0x4(%eax),%eax
  101064:	8d 50 ff             	lea    -0x1(%eax),%edx
  101067:	8b 45 08             	mov    0x8(%ebp),%eax
  10106a:	89 50 04             	mov    %edx,0x4(%eax)
  10106d:	8b 45 08             	mov    0x8(%ebp),%eax
  101070:	8b 40 04             	mov    0x4(%eax),%eax
  101073:	85 c0                	test   %eax,%eax
  101075:	7e 15                	jle    10108c <fileclose+0x5b>
  101077:	83 ec 0c             	sub    $0xc,%esp
  10107a:	68 80 f3 10 00       	push   $0x10f380
  10107f:	e8 2b 39 00 00       	call   1049af <release>
  101084:	83 c4 10             	add    $0x10,%esp
  101087:	e9 81 00 00 00       	jmp    10110d <fileclose+0xdc>
  10108c:	8b 45 08             	mov    0x8(%ebp),%eax
  10108f:	8b 10                	mov    (%eax),%edx
  101091:	89 55 e0             	mov    %edx,-0x20(%ebp)
  101094:	8b 50 04             	mov    0x4(%eax),%edx
  101097:	89 55 e4             	mov    %edx,-0x1c(%ebp)
  10109a:	8b 50 08             	mov    0x8(%eax),%edx
  10109d:	89 55 e8             	mov    %edx,-0x18(%ebp)
  1010a0:	8b 50 0c             	mov    0xc(%eax),%edx
  1010a3:	89 55 ec             	mov    %edx,-0x14(%ebp)
  1010a6:	8b 50 10             	mov    0x10(%eax),%edx
  1010a9:	89 55 f0             	mov    %edx,-0x10(%ebp)
  1010ac:	8b 40 14             	mov    0x14(%eax),%eax
  1010af:	89 45 f4             	mov    %eax,-0xc(%ebp)
  1010b2:	8b 45 08             	mov    0x8(%ebp),%eax
  1010b5:	c7 40 04 00 00 00 00 	movl   $0x0,0x4(%eax)
  1010bc:	8b 45 08             	mov    0x8(%ebp),%eax
  1010bf:	c7 00 00 00 00 00    	movl   $0x0,(%eax)
  1010c5:	83 ec 0c             	sub    $0xc,%esp
  1010c8:	68 80 f3 10 00       	push   $0x10f380
  1010cd:	e8 dd 38 00 00       	call   1049af <release>
  1010d2:	83 c4 10             	add    $0x10,%esp
  1010d5:	8b 45 e0             	mov    -0x20(%ebp),%eax
  1010d8:	83 f8 01             	cmp    $0x1,%eax
  1010db:	75 19                	jne    1010f6 <fileclose+0xc5>
  1010dd:	0f b6 45 e9          	movzbl -0x17(%ebp),%eax
  1010e1:	0f be d0             	movsbl %al,%edx
  1010e4:	8b 45 ec             	mov    -0x14(%ebp),%eax
  1010e7:	83 ec 08             	sub    $0x8,%esp
  1010ea:	52                   	push   %edx
  1010eb:	50                   	push   %eax
  1010ec:	e8 0b 2a 00 00       	call   103afc <pipeclose>
  1010f1:	83 c4 10             	add    $0x10,%esp
  1010f4:	eb 17                	jmp    10110d <fileclose+0xdc>
  1010f6:	8b 45 e0             	mov    -0x20(%ebp),%eax
  1010f9:	83 f8 02             	cmp    $0x2,%eax
  1010fc:	75 0f                	jne    10110d <fileclose+0xdc>
  1010fe:	8b 45 f0             	mov    -0x10(%ebp),%eax
  101101:	83 ec 0c             	sub    $0xc,%esp
  101104:	50                   	push   %eax
  101105:	e8 55 6f 00 00       	call   10805f <vfs_iput>
  10110a:	83 c4 10             	add    $0x10,%esp
  10110d:	c9                   	leave  
  10110e:	c3                   	ret    

0010110f <filestat>:
  10110f:	55                   	push   %ebp
  101110:	89 e5                	mov    %esp,%ebp
  101112:	83 ec 08             	sub    $0x8,%esp
  101115:	8b 45 08             	mov    0x8(%ebp),%eax
  101118:	8b 00                	mov    (%eax),%eax
  10111a:	83 f8 02             	cmp    $0x2,%eax
  10111d:	75 40                	jne    10115f <filestat+0x50>
  10111f:	8b 45 08             	mov    0x8(%ebp),%eax
  101122:	8b 40 10             	mov    0x10(%eax),%eax
  101125:	83 ec 0c             	sub    $0xc,%esp
  101128:	50                   	push   %eax
  101129:	e8 14 6f 00 00       	call   108042 <vfs_ilock>
  10112e:	83 c4 10             	add    $0x10,%esp
  101131:	8b 45 08             	mov    0x8(%ebp),%eax
  101134:	8b 40 10             	mov    0x10(%eax),%eax
  101137:	83 ec 08             	sub    $0x8,%esp
  10113a:	ff 75 0c             	pushl  0xc(%ebp)
  10113d:	50                   	push   %eax
  10113e:	e8 1f 6e 00 00       	call   107f62 <vfs_stat>
  101143:	83 c4 10             	add    $0x10,%esp
  101146:	8b 45 08             	mov    0x8(%ebp),%eax
  101149:	8b 40 10             	mov    0x10(%eax),%eax
  10114c:	83 ec 0c             	sub    $0xc,%esp
  10114f:	50                   	push   %eax
  101150:	e8 6f 6f 00 00       	call   1080c4 <vfs_iunlock>
  101155:	83 c4 10             	add    $0x10,%esp
  101158:	b8 00 00 00 00       	mov    $0x0,%eax
  10115d:	eb 05                	jmp    101164 <filestat+0x55>
  10115f:	b8 ff ff ff ff       	mov    $0xffffffff,%eax
  101164:	c9                   	leave  
  101165:	c3                   	ret    

00101166 <fileread>:
  101166:	55                   	push   %ebp
  101167:	89 e5                	mov    %esp,%ebp
  101169:	83 ec 18             	sub    $0x18,%esp
  10116c:	8b 45 08             	mov    0x8(%ebp),%eax
  10116f:	0f b6 40 08          	movzbl 0x8(%eax),%eax
  101173:	84 c0                	test   %al,%al
  101175:	75 0a                	jne    101181 <fileread+0x1b>
  101177:	b8 ff ff ff ff       	mov    $0xffffffff,%eax
  10117c:	e9 9b 00 00 00       	jmp    10121c <fileread+0xb6>
  101181:	8b 45 08             	mov    0x8(%ebp),%eax
  101184:	8b 00                	mov    (%eax),%eax
  101186:	83 f8 01             	cmp    $0x1,%eax
  101189:	75 1a                	jne    1011a5 <fileread+0x3f>
  10118b:	8b 45 08             	mov    0x8(%ebp),%eax
  10118e:	8b 40 0c             	mov    0xc(%eax),%eax
  101191:	83 ec 04             	sub    $0x4,%esp
  101194:	ff 75 10             	pushl  0x10(%ebp)
  101197:	ff 75 0c             	pushl  0xc(%ebp)
  10119a:	50                   	push   %eax
  10119b:	e8 09 2b 00 00       	call   103ca9 <piperead>
  1011a0:	83 c4 10             	add    $0x10,%esp
  1011a3:	eb 77                	jmp    10121c <fileread+0xb6>
  1011a5:	8b 45 08             	mov    0x8(%ebp),%eax
  1011a8:	8b 00                	mov    (%eax),%eax
  1011aa:	83 f8 02             	cmp    $0x2,%eax
  1011ad:	75 60                	jne    10120f <fileread+0xa9>
  1011af:	8b 45 08             	mov    0x8(%ebp),%eax
  1011b2:	8b 40 10             	mov    0x10(%eax),%eax
  1011b5:	83 ec 0c             	sub    $0xc,%esp
  1011b8:	50                   	push   %eax
  1011b9:	e8 84 6e 00 00       	call   108042 <vfs_ilock>
  1011be:	83 c4 10             	add    $0x10,%esp
  1011c1:	8b 4d 10             	mov    0x10(%ebp),%ecx
  1011c4:	8b 45 08             	mov    0x8(%ebp),%eax
  1011c7:	8b 50 14             	mov    0x14(%eax),%edx
  1011ca:	8b 45 08             	mov    0x8(%ebp),%eax
  1011cd:	8b 40 10             	mov    0x10(%eax),%eax
  1011d0:	51                   	push   %ecx
  1011d1:	52                   	push   %edx
  1011d2:	ff 75 0c             	pushl  0xc(%ebp)
  1011d5:	50                   	push   %eax
  1011d6:	e8 65 6d 00 00       	call   107f40 <vfs_read>
  1011db:	83 c4 10             	add    $0x10,%esp
  1011de:	89 45 f4             	mov    %eax,-0xc(%ebp)
  1011e1:	83 7d f4 00          	cmpl   $0x0,-0xc(%ebp)
  1011e5:	7e 11                	jle    1011f8 <fileread+0x92>
  1011e7:	8b 45 08             	mov    0x8(%ebp),%eax
  1011ea:	8b 50 14             	mov    0x14(%eax),%edx
  1011ed:	8b 45 f4             	mov    -0xc(%ebp),%eax
  1011f0:	01 c2                	add    %eax,%edx
  1011f2:	8b 45 08             	mov    0x8(%ebp),%eax
  1011f5:	89 50 14             	mov    %edx,0x14(%eax)
  1011f8:	8b 45 08             	mov    0x8(%ebp),%eax
  1011fb:	8b 40 10             	mov    0x10(%eax),%eax
  1011fe:	83 ec 0c             	sub    $0xc,%esp
  101201:	50                   	push   %eax
  101202:	e8 bd 6e 00 00       	call   1080c4 <vfs_iunlock>
  101207:	83 c4 10             	add    $0x10,%esp
  10120a:	8b 45 f4             	mov    -0xc(%ebp),%eax
  10120d:	eb 0d                	jmp    10121c <fileread+0xb6>
  10120f:	83 ec 0c             	sub    $0xc,%esp
  101212:	68 49 8e 10 00       	push   $0x108e49
  101217:	e8 5c f3 ff ff       	call   100578 <panic>
  10121c:	c9                   	leave  
  10121d:	c3                   	ret    

0010121e <filewrite>:
  10121e:	55                   	push   %ebp
  10121f:	89 e5                	mov    %esp,%ebp
  101221:	83 ec 18             	sub    $0x18,%esp
  101224:	8b 45 08             	mov    0x8(%ebp),%eax
  101227:	8b 40 14             	mov    0x14(%eax),%eax
  10122a:	3d 00 10 00 00       	cmp    $0x1000,%eax
  10122f:	75 07                	jne    101238 <filewrite+0x1a>
  101231:	c7 45 f4 00 00 00 00 	movl   $0x0,-0xc(%ebp)
  101238:	8b 45 08             	mov    0x8(%ebp),%eax
  10123b:	0f b6 40 09          	movzbl 0x9(%eax),%eax
  10123f:	84 c0                	test   %al,%al
  101241:	75 0a                	jne    10124d <filewrite+0x2f>
  101243:	b8 ff ff ff ff       	mov    $0xffffffff,%eax
  101248:	e9 9b 00 00 00       	jmp    1012e8 <filewrite+0xca>
  10124d:	8b 45 08             	mov    0x8(%ebp),%eax
  101250:	8b 00                	mov    (%eax),%eax
  101252:	83 f8 01             	cmp    $0x1,%eax
  101255:	75 1a                	jne    101271 <filewrite+0x53>
  101257:	8b 45 08             	mov    0x8(%ebp),%eax
  10125a:	8b 40 0c             	mov    0xc(%eax),%eax
  10125d:	83 ec 04             	sub    $0x4,%esp
  101260:	ff 75 10             	pushl  0x10(%ebp)
  101263:	ff 75 0c             	pushl  0xc(%ebp)
  101266:	50                   	push   %eax
  101267:	e8 3a 29 00 00       	call   103ba6 <pipewrite>
  10126c:	83 c4 10             	add    $0x10,%esp
  10126f:	eb 77                	jmp    1012e8 <filewrite+0xca>
  101271:	8b 45 08             	mov    0x8(%ebp),%eax
  101274:	8b 00                	mov    (%eax),%eax
  101276:	83 f8 02             	cmp    $0x2,%eax
  101279:	75 60                	jne    1012db <filewrite+0xbd>
  10127b:	8b 45 08             	mov    0x8(%ebp),%eax
  10127e:	8b 40 10             	mov    0x10(%eax),%eax
  101281:	83 ec 0c             	sub    $0xc,%esp
  101284:	50                   	push   %eax
  101285:	e8 b8 6d 00 00       	call   108042 <vfs_ilock>
  10128a:	83 c4 10             	add    $0x10,%esp
  10128d:	8b 4d 10             	mov    0x10(%ebp),%ecx
  101290:	8b 45 08             	mov    0x8(%ebp),%eax
  101293:	8b 50 14             	mov    0x14(%eax),%edx
  101296:	8b 45 08             	mov    0x8(%ebp),%eax
  101299:	8b 40 10             	mov    0x10(%eax),%eax
  10129c:	51                   	push   %ecx
  10129d:	52                   	push   %edx
  10129e:	ff 75 0c             	pushl  0xc(%ebp)
  1012a1:	50                   	push   %eax
  1012a2:	e8 77 6c 00 00       	call   107f1e <vfs_write>
  1012a7:	83 c4 10             	add    $0x10,%esp
  1012aa:	89 45 f4             	mov    %eax,-0xc(%ebp)
  1012ad:	83 7d f4 00          	cmpl   $0x0,-0xc(%ebp)
  1012b1:	7e 11                	jle    1012c4 <filewrite+0xa6>
  1012b3:	8b 45 08             	mov    0x8(%ebp),%eax
  1012b6:	8b 50 14             	mov    0x14(%eax),%edx
  1012b9:	8b 45 f4             	mov    -0xc(%ebp),%eax
  1012bc:	01 c2                	add    %eax,%edx
  1012be:	8b 45 08             	mov    0x8(%ebp),%eax
  1012c1:	89 50 14             	mov    %edx,0x14(%eax)
  1012c4:	8b 45 08             	mov    0x8(%ebp),%eax
  1012c7:	8b 40 10             	mov    0x10(%eax),%eax
  1012ca:	83 ec 0c             	sub    $0xc,%esp
  1012cd:	50                   	push   %eax
  1012ce:	e8 f1 6d 00 00       	call   1080c4 <vfs_iunlock>
  1012d3:	83 c4 10             	add    $0x10,%esp
  1012d6:	8b 45 f4             	mov    -0xc(%ebp),%eax
  1012d9:	eb 0d                	jmp    1012e8 <filewrite+0xca>
  1012db:	83 ec 0c             	sub    $0xc,%esp
  1012de:	68 52 8e 10 00       	push   $0x108e52
  1012e3:	e8 90 f2 ff ff       	call   100578 <panic>
  1012e8:	c9                   	leave  
  1012e9:	c3                   	ret    

001012ea <readsb>:
  1012ea:	55                   	push   %ebp
  1012eb:	89 e5                	mov    %esp,%ebp
  1012ed:	83 ec 18             	sub    $0x18,%esp
  1012f0:	8b 45 08             	mov    0x8(%ebp),%eax
  1012f3:	83 ec 08             	sub    $0x8,%esp
  1012f6:	6a 01                	push   $0x1
  1012f8:	50                   	push   %eax
  1012f9:	e8 e2 ee ff ff       	call   1001e0 <bread>
  1012fe:	83 c4 10             	add    $0x10,%esp
  101301:	89 45 f4             	mov    %eax,-0xc(%ebp)
  101304:	8b 45 f4             	mov    -0xc(%ebp),%eax
  101307:	83 c0 18             	add    $0x18,%eax
  10130a:	83 ec 04             	sub    $0x4,%esp
  10130d:	6a 0c                	push   $0xc
  10130f:	50                   	push   %eax
  101310:	ff 75 0c             	pushl  0xc(%ebp)
  101313:	e8 df 38 00 00       	call   104bf7 <memmove>
  101318:	83 c4 10             	add    $0x10,%esp
  10131b:	83 ec 0c             	sub    $0xc,%esp
  10131e:	ff 75 f4             	pushl  -0xc(%ebp)
  101321:	e8 32 ef ff ff       	call   100258 <brelse>
  101326:	83 c4 10             	add    $0x10,%esp
  101329:	90                   	nop
  10132a:	c9                   	leave  
  10132b:	c3                   	ret    

0010132c <bzero>:
  10132c:	55                   	push   %ebp
  10132d:	89 e5                	mov    %esp,%ebp
  10132f:	83 ec 18             	sub    $0x18,%esp
  101332:	8b 55 0c             	mov    0xc(%ebp),%edx
  101335:	8b 45 08             	mov    0x8(%ebp),%eax
  101338:	83 ec 08             	sub    $0x8,%esp
  10133b:	52                   	push   %edx
  10133c:	50                   	push   %eax
  10133d:	e8 9e ee ff ff       	call   1001e0 <bread>
  101342:	83 c4 10             	add    $0x10,%esp
  101345:	89 45 f4             	mov    %eax,-0xc(%ebp)
  101348:	8b 45 f4             	mov    -0xc(%ebp),%eax
  10134b:	83 c0 18             	add    $0x18,%eax
  10134e:	83 ec 04             	sub    $0x4,%esp
  101351:	68 00 02 00 00       	push   $0x200
  101356:	6a 00                	push   $0x0
  101358:	50                   	push   %eax
  101359:	e8 27 38 00 00       	call   104b85 <memset>
  10135e:	83 c4 10             	add    $0x10,%esp
  101361:	83 ec 0c             	sub    $0xc,%esp
  101364:	ff 75 f4             	pushl  -0xc(%ebp)
  101367:	e8 ad ee ff ff       	call   100219 <bwrite>
  10136c:	83 c4 10             	add    $0x10,%esp
  10136f:	83 ec 0c             	sub    $0xc,%esp
  101372:	ff 75 f4             	pushl  -0xc(%ebp)
  101375:	e8 de ee ff ff       	call   100258 <brelse>
  10137a:	83 c4 10             	add    $0x10,%esp
  10137d:	90                   	nop
  10137e:	c9                   	leave  
  10137f:	c3                   	ret    

00101380 <balloc>:
  101380:	55                   	push   %ebp
  101381:	89 e5                	mov    %esp,%ebp
  101383:	83 ec 28             	sub    $0x28,%esp
  101386:	c7 45 ec 00 00 00 00 	movl   $0x0,-0x14(%ebp)
  10138d:	8b 45 08             	mov    0x8(%ebp),%eax
  101390:	83 ec 08             	sub    $0x8,%esp
  101393:	8d 55 dc             	lea    -0x24(%ebp),%edx
  101396:	52                   	push   %edx
  101397:	50                   	push   %eax
  101398:	e8 4d ff ff ff       	call   1012ea <readsb>
  10139d:	83 c4 10             	add    $0x10,%esp
  1013a0:	c7 45 f4 00 00 00 00 	movl   $0x0,-0xc(%ebp)
  1013a7:	e9 ec 00 00 00       	jmp    101498 <balloc+0x118>
  1013ac:	8b 45 f4             	mov    -0xc(%ebp),%eax
  1013af:	8d 90 ff 0f 00 00    	lea    0xfff(%eax),%edx
  1013b5:	85 c0                	test   %eax,%eax
  1013b7:	0f 48 c2             	cmovs  %edx,%eax
  1013ba:	c1 f8 0c             	sar    $0xc,%eax
  1013bd:	89 c2                	mov    %eax,%edx
  1013bf:	8b 45 e4             	mov    -0x1c(%ebp),%eax
  1013c2:	c1 e8 03             	shr    $0x3,%eax
  1013c5:	01 d0                	add    %edx,%eax
  1013c7:	83 c0 03             	add    $0x3,%eax
  1013ca:	83 ec 08             	sub    $0x8,%esp
  1013cd:	50                   	push   %eax
  1013ce:	ff 75 08             	pushl  0x8(%ebp)
  1013d1:	e8 0a ee ff ff       	call   1001e0 <bread>
  1013d6:	83 c4 10             	add    $0x10,%esp
  1013d9:	89 45 ec             	mov    %eax,-0x14(%ebp)
  1013dc:	c7 45 f0 00 00 00 00 	movl   $0x0,-0x10(%ebp)
  1013e3:	e9 8e 00 00 00       	jmp    101476 <balloc+0xf6>
  1013e8:	8b 45 f0             	mov    -0x10(%ebp),%eax
  1013eb:	99                   	cltd   
  1013ec:	c1 ea 1d             	shr    $0x1d,%edx
  1013ef:	01 d0                	add    %edx,%eax
  1013f1:	83 e0 07             	and    $0x7,%eax
  1013f4:	29 d0                	sub    %edx,%eax
  1013f6:	ba 01 00 00 00       	mov    $0x1,%edx
  1013fb:	89 c1                	mov    %eax,%ecx
  1013fd:	d3 e2                	shl    %cl,%edx
  1013ff:	89 d0                	mov    %edx,%eax
  101401:	89 45 e8             	mov    %eax,-0x18(%ebp)
  101404:	8b 45 f0             	mov    -0x10(%ebp),%eax
  101407:	8d 50 07             	lea    0x7(%eax),%edx
  10140a:	85 c0                	test   %eax,%eax
  10140c:	0f 48 c2             	cmovs  %edx,%eax
  10140f:	c1 f8 03             	sar    $0x3,%eax
  101412:	89 c2                	mov    %eax,%edx
  101414:	8b 45 ec             	mov    -0x14(%ebp),%eax
  101417:	0f b6 44 10 18       	movzbl 0x18(%eax,%edx,1),%eax
  10141c:	0f b6 c0             	movzbl %al,%eax
  10141f:	23 45 e8             	and    -0x18(%ebp),%eax
  101422:	85 c0                	test   %eax,%eax
  101424:	75 4c                	jne    101472 <balloc+0xf2>
  101426:	8b 45 f0             	mov    -0x10(%ebp),%eax
  101429:	8d 50 07             	lea    0x7(%eax),%edx
  10142c:	85 c0                	test   %eax,%eax
  10142e:	0f 48 c2             	cmovs  %edx,%eax
  101431:	c1 f8 03             	sar    $0x3,%eax
  101434:	8b 55 ec             	mov    -0x14(%ebp),%edx
  101437:	0f b6 54 02 18       	movzbl 0x18(%edx,%eax,1),%edx
  10143c:	89 d1                	mov    %edx,%ecx
  10143e:	8b 55 e8             	mov    -0x18(%ebp),%edx
  101441:	09 ca                	or     %ecx,%edx
  101443:	89 d1                	mov    %edx,%ecx
  101445:	8b 55 ec             	mov    -0x14(%ebp),%edx
  101448:	88 4c 02 18          	mov    %cl,0x18(%edx,%eax,1)
  10144c:	83 ec 0c             	sub    $0xc,%esp
  10144f:	ff 75 ec             	pushl  -0x14(%ebp)
  101452:	e8 c2 ed ff ff       	call   100219 <bwrite>
  101457:	83 c4 10             	add    $0x10,%esp
  10145a:	83 ec 0c             	sub    $0xc,%esp
  10145d:	ff 75 ec             	pushl  -0x14(%ebp)
  101460:	e8 f3 ed ff ff       	call   100258 <brelse>
  101465:	83 c4 10             	add    $0x10,%esp
  101468:	8b 55 f4             	mov    -0xc(%ebp),%edx
  10146b:	8b 45 f0             	mov    -0x10(%ebp),%eax
  10146e:	01 d0                	add    %edx,%eax
  101470:	eb 41                	jmp    1014b3 <balloc+0x133>
  101472:	83 45 f0 01          	addl   $0x1,-0x10(%ebp)
  101476:	81 7d f0 ff 0f 00 00 	cmpl   $0xfff,-0x10(%ebp)
  10147d:	0f 8e 65 ff ff ff    	jle    1013e8 <balloc+0x68>
  101483:	83 ec 0c             	sub    $0xc,%esp
  101486:	ff 75 ec             	pushl  -0x14(%ebp)
  101489:	e8 ca ed ff ff       	call   100258 <brelse>
  10148e:	83 c4 10             	add    $0x10,%esp
  101491:	81 45 f4 00 10 00 00 	addl   $0x1000,-0xc(%ebp)
  101498:	8b 55 dc             	mov    -0x24(%ebp),%edx
  10149b:	8b 45 f4             	mov    -0xc(%ebp),%eax
  10149e:	39 c2                	cmp    %eax,%edx
  1014a0:	0f 87 06 ff ff ff    	ja     1013ac <balloc+0x2c>
  1014a6:	83 ec 0c             	sub    $0xc,%esp
  1014a9:	68 5c 8e 10 00       	push   $0x108e5c
  1014ae:	e8 c5 f0 ff ff       	call   100578 <panic>
  1014b3:	c9                   	leave  
  1014b4:	c3                   	ret    

001014b5 <bfree>:
  1014b5:	55                   	push   %ebp
  1014b6:	89 e5                	mov    %esp,%ebp
  1014b8:	83 ec 28             	sub    $0x28,%esp
  1014bb:	8b 45 0c             	mov    0xc(%ebp),%eax
  1014be:	83 ec 08             	sub    $0x8,%esp
  1014c1:	50                   	push   %eax
  1014c2:	ff 75 08             	pushl  0x8(%ebp)
  1014c5:	e8 62 fe ff ff       	call   10132c <bzero>
  1014ca:	83 c4 10             	add    $0x10,%esp
  1014cd:	83 ec 08             	sub    $0x8,%esp
  1014d0:	8d 45 e0             	lea    -0x20(%ebp),%eax
  1014d3:	50                   	push   %eax
  1014d4:	ff 75 08             	pushl  0x8(%ebp)
  1014d7:	e8 0e fe ff ff       	call   1012ea <readsb>
  1014dc:	83 c4 10             	add    $0x10,%esp
  1014df:	8b 45 0c             	mov    0xc(%ebp),%eax
  1014e2:	c1 e8 0c             	shr    $0xc,%eax
  1014e5:	89 c2                	mov    %eax,%edx
  1014e7:	8b 45 e8             	mov    -0x18(%ebp),%eax
  1014ea:	c1 e8 03             	shr    $0x3,%eax
  1014ed:	01 d0                	add    %edx,%eax
  1014ef:	8d 50 03             	lea    0x3(%eax),%edx
  1014f2:	8b 45 08             	mov    0x8(%ebp),%eax
  1014f5:	83 ec 08             	sub    $0x8,%esp
  1014f8:	52                   	push   %edx
  1014f9:	50                   	push   %eax
  1014fa:	e8 e1 ec ff ff       	call   1001e0 <bread>
  1014ff:	83 c4 10             	add    $0x10,%esp
  101502:	89 45 f4             	mov    %eax,-0xc(%ebp)
  101505:	8b 45 0c             	mov    0xc(%ebp),%eax
  101508:	25 ff 0f 00 00       	and    $0xfff,%eax
  10150d:	89 45 f0             	mov    %eax,-0x10(%ebp)
  101510:	8b 45 f0             	mov    -0x10(%ebp),%eax
  101513:	99                   	cltd   
  101514:	c1 ea 1d             	shr    $0x1d,%edx
  101517:	01 d0                	add    %edx,%eax
  101519:	83 e0 07             	and    $0x7,%eax
  10151c:	29 d0                	sub    %edx,%eax
  10151e:	ba 01 00 00 00       	mov    $0x1,%edx
  101523:	89 c1                	mov    %eax,%ecx
  101525:	d3 e2                	shl    %cl,%edx
  101527:	89 d0                	mov    %edx,%eax
  101529:	89 45 ec             	mov    %eax,-0x14(%ebp)
  10152c:	8b 45 f0             	mov    -0x10(%ebp),%eax
  10152f:	8d 50 07             	lea    0x7(%eax),%edx
  101532:	85 c0                	test   %eax,%eax
  101534:	0f 48 c2             	cmovs  %edx,%eax
  101537:	c1 f8 03             	sar    $0x3,%eax
  10153a:	89 c2                	mov    %eax,%edx
  10153c:	8b 45 f4             	mov    -0xc(%ebp),%eax
  10153f:	0f b6 44 10 18       	movzbl 0x18(%eax,%edx,1),%eax
  101544:	0f b6 c0             	movzbl %al,%eax
  101547:	23 45 ec             	and    -0x14(%ebp),%eax
  10154a:	85 c0                	test   %eax,%eax
  10154c:	75 0d                	jne    10155b <bfree+0xa6>
  10154e:	83 ec 0c             	sub    $0xc,%esp
  101551:	68 72 8e 10 00       	push   $0x108e72
  101556:	e8 1d f0 ff ff       	call   100578 <panic>
  10155b:	8b 45 f0             	mov    -0x10(%ebp),%eax
  10155e:	8d 50 07             	lea    0x7(%eax),%edx
  101561:	85 c0                	test   %eax,%eax
  101563:	0f 48 c2             	cmovs  %edx,%eax
  101566:	c1 f8 03             	sar    $0x3,%eax
  101569:	8b 55 f4             	mov    -0xc(%ebp),%edx
  10156c:	0f b6 54 02 18       	movzbl 0x18(%edx,%eax,1),%edx
  101571:	89 d1                	mov    %edx,%ecx
  101573:	8b 55 ec             	mov    -0x14(%ebp),%edx
  101576:	f7 d2                	not    %edx
  101578:	21 ca                	and    %ecx,%edx
  10157a:	89 d1                	mov    %edx,%ecx
  10157c:	8b 55 f4             	mov    -0xc(%ebp),%edx
  10157f:	88 4c 02 18          	mov    %cl,0x18(%edx,%eax,1)
  101583:	83 ec 0c             	sub    $0xc,%esp
  101586:	ff 75 f4             	pushl  -0xc(%ebp)
  101589:	e8 8b ec ff ff       	call   100219 <bwrite>
  10158e:	83 c4 10             	add    $0x10,%esp
  101591:	83 ec 0c             	sub    $0xc,%esp
  101594:	ff 75 f4             	pushl  -0xc(%ebp)
  101597:	e8 bc ec ff ff       	call   100258 <brelse>
  10159c:	83 c4 10             	add    $0x10,%esp
  10159f:	90                   	nop
  1015a0:	c9                   	leave  
  1015a1:	c3                   	ret    

001015a2 <iinit>:
  1015a2:	55                   	push   %ebp
  1015a3:	89 e5                	mov    %esp,%ebp
  1015a5:	83 ec 08             	sub    $0x8,%esp
  1015a8:	83 ec 08             	sub    $0x8,%esp
  1015ab:	68 85 8e 10 00       	push   $0x108e85
  1015b0:	68 80 fd 10 00       	push   $0x10fd80
  1015b5:	e8 6c 33 00 00       	call   104926 <initlock>
  1015ba:	83 c4 10             	add    $0x10,%esp
  1015bd:	90                   	nop
  1015be:	c9                   	leave  
  1015bf:	c3                   	ret    

001015c0 <ialloc>:
  1015c0:	55                   	push   %ebp
  1015c1:	89 e5                	mov    %esp,%ebp
  1015c3:	83 ec 38             	sub    $0x38,%esp
  1015c6:	8b 45 0c             	mov    0xc(%ebp),%eax
  1015c9:	66 89 45 d4          	mov    %ax,-0x2c(%ebp)
  1015cd:	8b 45 08             	mov    0x8(%ebp),%eax
  1015d0:	83 ec 08             	sub    $0x8,%esp
  1015d3:	8d 55 e0             	lea    -0x20(%ebp),%edx
  1015d6:	52                   	push   %edx
  1015d7:	50                   	push   %eax
  1015d8:	e8 0d fd ff ff       	call   1012ea <readsb>
  1015dd:	83 c4 10             	add    $0x10,%esp
  1015e0:	c7 45 f4 01 00 00 00 	movl   $0x1,-0xc(%ebp)
  1015e7:	e9 98 00 00 00       	jmp    101684 <ialloc+0xc4>
  1015ec:	8b 45 f4             	mov    -0xc(%ebp),%eax
  1015ef:	c1 e8 03             	shr    $0x3,%eax
  1015f2:	83 c0 02             	add    $0x2,%eax
  1015f5:	83 ec 08             	sub    $0x8,%esp
  1015f8:	50                   	push   %eax
  1015f9:	ff 75 08             	pushl  0x8(%ebp)
  1015fc:	e8 df eb ff ff       	call   1001e0 <bread>
  101601:	83 c4 10             	add    $0x10,%esp
  101604:	89 45 f0             	mov    %eax,-0x10(%ebp)
  101607:	8b 45 f0             	mov    -0x10(%ebp),%eax
  10160a:	8d 50 18             	lea    0x18(%eax),%edx
  10160d:	8b 45 f4             	mov    -0xc(%ebp),%eax
  101610:	83 e0 07             	and    $0x7,%eax
  101613:	c1 e0 06             	shl    $0x6,%eax
  101616:	01 d0                	add    %edx,%eax
  101618:	89 45 ec             	mov    %eax,-0x14(%ebp)
  10161b:	8b 45 ec             	mov    -0x14(%ebp),%eax
  10161e:	0f b7 00             	movzwl (%eax),%eax
  101621:	66 85 c0             	test   %ax,%ax
  101624:	75 4c                	jne    101672 <ialloc+0xb2>
  101626:	83 ec 04             	sub    $0x4,%esp
  101629:	6a 40                	push   $0x40
  10162b:	6a 00                	push   $0x0
  10162d:	ff 75 ec             	pushl  -0x14(%ebp)
  101630:	e8 50 35 00 00       	call   104b85 <memset>
  101635:	83 c4 10             	add    $0x10,%esp
  101638:	8b 45 ec             	mov    -0x14(%ebp),%eax
  10163b:	0f b7 55 d4          	movzwl -0x2c(%ebp),%edx
  10163f:	66 89 10             	mov    %dx,(%eax)
  101642:	83 ec 0c             	sub    $0xc,%esp
  101645:	ff 75 f0             	pushl  -0x10(%ebp)
  101648:	e8 cc eb ff ff       	call   100219 <bwrite>
  10164d:	83 c4 10             	add    $0x10,%esp
  101650:	83 ec 0c             	sub    $0xc,%esp
  101653:	ff 75 f0             	pushl  -0x10(%ebp)
  101656:	e8 fd eb ff ff       	call   100258 <brelse>
  10165b:	83 c4 10             	add    $0x10,%esp
  10165e:	8b 45 f4             	mov    -0xc(%ebp),%eax
  101661:	83 ec 08             	sub    $0x8,%esp
  101664:	50                   	push   %eax
  101665:	ff 75 08             	pushl  0x8(%ebp)
  101668:	e8 ef 00 00 00       	call   10175c <iget>
  10166d:	83 c4 10             	add    $0x10,%esp
  101670:	eb 2d                	jmp    10169f <ialloc+0xdf>
  101672:	83 ec 0c             	sub    $0xc,%esp
  101675:	ff 75 f0             	pushl  -0x10(%ebp)
  101678:	e8 db eb ff ff       	call   100258 <brelse>
  10167d:	83 c4 10             	add    $0x10,%esp
  101680:	83 45 f4 01          	addl   $0x1,-0xc(%ebp)
  101684:	8b 55 e8             	mov    -0x18(%ebp),%edx
  101687:	8b 45 f4             	mov    -0xc(%ebp),%eax
  10168a:	39 c2                	cmp    %eax,%edx
  10168c:	0f 87 5a ff ff ff    	ja     1015ec <ialloc+0x2c>
  101692:	83 ec 0c             	sub    $0xc,%esp
  101695:	68 8c 8e 10 00       	push   $0x108e8c
  10169a:	e8 d9 ee ff ff       	call   100578 <panic>
  10169f:	c9                   	leave  
  1016a0:	c3                   	ret    

001016a1 <iupdate>:
  1016a1:	55                   	push   %ebp
  1016a2:	89 e5                	mov    %esp,%ebp
  1016a4:	83 ec 18             	sub    $0x18,%esp
  1016a7:	8b 45 08             	mov    0x8(%ebp),%eax
  1016aa:	8b 40 04             	mov    0x4(%eax),%eax
  1016ad:	c1 e8 03             	shr    $0x3,%eax
  1016b0:	8d 50 02             	lea    0x2(%eax),%edx
  1016b3:	8b 45 08             	mov    0x8(%ebp),%eax
  1016b6:	8b 00                	mov    (%eax),%eax
  1016b8:	83 ec 08             	sub    $0x8,%esp
  1016bb:	52                   	push   %edx
  1016bc:	50                   	push   %eax
  1016bd:	e8 1e eb ff ff       	call   1001e0 <bread>
  1016c2:	83 c4 10             	add    $0x10,%esp
  1016c5:	89 45 f4             	mov    %eax,-0xc(%ebp)
  1016c8:	8b 45 f4             	mov    -0xc(%ebp),%eax
  1016cb:	8d 50 18             	lea    0x18(%eax),%edx
  1016ce:	8b 45 08             	mov    0x8(%ebp),%eax
  1016d1:	8b 40 04             	mov    0x4(%eax),%eax
  1016d4:	83 e0 07             	and    $0x7,%eax
  1016d7:	c1 e0 06             	shl    $0x6,%eax
  1016da:	01 d0                	add    %edx,%eax
  1016dc:	89 45 f0             	mov    %eax,-0x10(%ebp)
  1016df:	8b 45 08             	mov    0x8(%ebp),%eax
  1016e2:	0f b7 50 10          	movzwl 0x10(%eax),%edx
  1016e6:	8b 45 f0             	mov    -0x10(%ebp),%eax
  1016e9:	66 89 10             	mov    %dx,(%eax)
  1016ec:	8b 45 08             	mov    0x8(%ebp),%eax
  1016ef:	0f b7 50 12          	movzwl 0x12(%eax),%edx
  1016f3:	8b 45 f0             	mov    -0x10(%ebp),%eax
  1016f6:	66 89 50 02          	mov    %dx,0x2(%eax)
  1016fa:	8b 45 08             	mov    0x8(%ebp),%eax
  1016fd:	0f b7 50 14          	movzwl 0x14(%eax),%edx
  101701:	8b 45 f0             	mov    -0x10(%ebp),%eax
  101704:	66 89 50 04          	mov    %dx,0x4(%eax)
  101708:	8b 45 08             	mov    0x8(%ebp),%eax
  10170b:	0f b7 50 16          	movzwl 0x16(%eax),%edx
  10170f:	8b 45 f0             	mov    -0x10(%ebp),%eax
  101712:	66 89 50 06          	mov    %dx,0x6(%eax)
  101716:	8b 45 08             	mov    0x8(%ebp),%eax
  101719:	8b 50 18             	mov    0x18(%eax),%edx
  10171c:	8b 45 f0             	mov    -0x10(%ebp),%eax
  10171f:	89 50 08             	mov    %edx,0x8(%eax)
  101722:	8b 45 08             	mov    0x8(%ebp),%eax
  101725:	8d 50 1c             	lea    0x1c(%eax),%edx
  101728:	8b 45 f0             	mov    -0x10(%ebp),%eax
  10172b:	83 c0 0c             	add    $0xc,%eax
  10172e:	83 ec 04             	sub    $0x4,%esp
  101731:	6a 34                	push   $0x34
  101733:	52                   	push   %edx
  101734:	50                   	push   %eax
  101735:	e8 bd 34 00 00       	call   104bf7 <memmove>
  10173a:	83 c4 10             	add    $0x10,%esp
  10173d:	83 ec 0c             	sub    $0xc,%esp
  101740:	ff 75 f4             	pushl  -0xc(%ebp)
  101743:	e8 d1 ea ff ff       	call   100219 <bwrite>
  101748:	83 c4 10             	add    $0x10,%esp
  10174b:	83 ec 0c             	sub    $0xc,%esp
  10174e:	ff 75 f4             	pushl  -0xc(%ebp)
  101751:	e8 02 eb ff ff       	call   100258 <brelse>
  101756:	83 c4 10             	add    $0x10,%esp
  101759:	90                   	nop
  10175a:	c9                   	leave  
  10175b:	c3                   	ret    

0010175c <iget>:
  10175c:	55                   	push   %ebp
  10175d:	89 e5                	mov    %esp,%ebp
  10175f:	83 ec 18             	sub    $0x18,%esp
  101762:	83 ec 0c             	sub    $0xc,%esp
  101765:	68 80 fd 10 00       	push   $0x10fd80
  10176a:	e8 d9 31 00 00       	call   104948 <acquire>
  10176f:	83 c4 10             	add    $0x10,%esp
  101772:	c7 45 f0 00 00 00 00 	movl   $0x0,-0x10(%ebp)
  101779:	c7 45 f4 b4 fd 10 00 	movl   $0x10fdb4,-0xc(%ebp)
  101780:	eb 5d                	jmp    1017df <iget+0x83>
  101782:	8b 45 f4             	mov    -0xc(%ebp),%eax
  101785:	8b 40 08             	mov    0x8(%eax),%eax
  101788:	85 c0                	test   %eax,%eax
  10178a:	7e 39                	jle    1017c5 <iget+0x69>
  10178c:	8b 45 f4             	mov    -0xc(%ebp),%eax
  10178f:	8b 00                	mov    (%eax),%eax
  101791:	39 45 08             	cmp    %eax,0x8(%ebp)
  101794:	75 2f                	jne    1017c5 <iget+0x69>
  101796:	8b 45 f4             	mov    -0xc(%ebp),%eax
  101799:	8b 40 04             	mov    0x4(%eax),%eax
  10179c:	39 45 0c             	cmp    %eax,0xc(%ebp)
  10179f:	75 24                	jne    1017c5 <iget+0x69>
  1017a1:	8b 45 f4             	mov    -0xc(%ebp),%eax
  1017a4:	8b 40 08             	mov    0x8(%eax),%eax
  1017a7:	8d 50 01             	lea    0x1(%eax),%edx
  1017aa:	8b 45 f4             	mov    -0xc(%ebp),%eax
  1017ad:	89 50 08             	mov    %edx,0x8(%eax)
  1017b0:	83 ec 0c             	sub    $0xc,%esp
  1017b3:	68 80 fd 10 00       	push   $0x10fd80
  1017b8:	e8 f2 31 00 00       	call   1049af <release>
  1017bd:	83 c4 10             	add    $0x10,%esp
  1017c0:	8b 45 f4             	mov    -0xc(%ebp),%eax
  1017c3:	eb 74                	jmp    101839 <iget+0xdd>
  1017c5:	83 7d f0 00          	cmpl   $0x0,-0x10(%ebp)
  1017c9:	75 10                	jne    1017db <iget+0x7f>
  1017cb:	8b 45 f4             	mov    -0xc(%ebp),%eax
  1017ce:	8b 40 08             	mov    0x8(%eax),%eax
  1017d1:	85 c0                	test   %eax,%eax
  1017d3:	75 06                	jne    1017db <iget+0x7f>
  1017d5:	8b 45 f4             	mov    -0xc(%ebp),%eax
  1017d8:	89 45 f0             	mov    %eax,-0x10(%ebp)
  1017db:	83 45 f4 50          	addl   $0x50,-0xc(%ebp)
  1017df:	81 7d f4 54 0d 11 00 	cmpl   $0x110d54,-0xc(%ebp)
  1017e6:	72 9a                	jb     101782 <iget+0x26>
  1017e8:	83 7d f0 00          	cmpl   $0x0,-0x10(%ebp)
  1017ec:	75 0d                	jne    1017fb <iget+0x9f>
  1017ee:	83 ec 0c             	sub    $0xc,%esp
  1017f1:	68 9e 8e 10 00       	push   $0x108e9e
  1017f6:	e8 7d ed ff ff       	call   100578 <panic>
  1017fb:	8b 45 f0             	mov    -0x10(%ebp),%eax
  1017fe:	89 45 f4             	mov    %eax,-0xc(%ebp)
  101801:	8b 45 f4             	mov    -0xc(%ebp),%eax
  101804:	8b 55 08             	mov    0x8(%ebp),%edx
  101807:	89 10                	mov    %edx,(%eax)
  101809:	8b 45 f4             	mov    -0xc(%ebp),%eax
  10180c:	8b 55 0c             	mov    0xc(%ebp),%edx
  10180f:	89 50 04             	mov    %edx,0x4(%eax)
  101812:	8b 45 f4             	mov    -0xc(%ebp),%eax
  101815:	c7 40 08 01 00 00 00 	movl   $0x1,0x8(%eax)
  10181c:	8b 45 f4             	mov    -0xc(%ebp),%eax
  10181f:	c7 40 0c 00 00 00 00 	movl   $0x0,0xc(%eax)
  101826:	83 ec 0c             	sub    $0xc,%esp
  101829:	68 80 fd 10 00       	push   $0x10fd80
  10182e:	e8 7c 31 00 00       	call   1049af <release>
  101833:	83 c4 10             	add    $0x10,%esp
  101836:	8b 45 f4             	mov    -0xc(%ebp),%eax
  101839:	c9                   	leave  
  10183a:	c3                   	ret    

0010183b <idup>:
  10183b:	55                   	push   %ebp
  10183c:	89 e5                	mov    %esp,%ebp
  10183e:	83 ec 08             	sub    $0x8,%esp
  101841:	83 ec 0c             	sub    $0xc,%esp
  101844:	68 80 fd 10 00       	push   $0x10fd80
  101849:	e8 fa 30 00 00       	call   104948 <acquire>
  10184e:	83 c4 10             	add    $0x10,%esp
  101851:	8b 45 08             	mov    0x8(%ebp),%eax
  101854:	8b 40 08             	mov    0x8(%eax),%eax
  101857:	8d 50 01             	lea    0x1(%eax),%edx
  10185a:	8b 45 08             	mov    0x8(%ebp),%eax
  10185d:	89 50 08             	mov    %edx,0x8(%eax)
  101860:	83 ec 0c             	sub    $0xc,%esp
  101863:	68 80 fd 10 00       	push   $0x10fd80
  101868:	e8 42 31 00 00       	call   1049af <release>
  10186d:	83 c4 10             	add    $0x10,%esp
  101870:	8b 45 08             	mov    0x8(%ebp),%eax
  101873:	c9                   	leave  
  101874:	c3                   	ret    

00101875 <ilock>:
  101875:	55                   	push   %ebp
  101876:	89 e5                	mov    %esp,%ebp
  101878:	83 ec 18             	sub    $0x18,%esp
  10187b:	83 7d 08 00          	cmpl   $0x0,0x8(%ebp)
  10187f:	74 0a                	je     10188b <ilock+0x16>
  101881:	8b 45 08             	mov    0x8(%ebp),%eax
  101884:	8b 40 08             	mov    0x8(%eax),%eax
  101887:	85 c0                	test   %eax,%eax
  101889:	7f 27                	jg     1018b2 <ilock+0x3d>
  10188b:	8b 45 08             	mov    0x8(%ebp),%eax
  10188e:	8b 40 08             	mov    0x8(%eax),%eax
  101891:	83 ec 04             	sub    $0x4,%esp
  101894:	50                   	push   %eax
  101895:	ff 75 08             	pushl  0x8(%ebp)
  101898:	68 b0 8e 10 00       	push   $0x108eb0
  10189d:	e8 4a eb ff ff       	call   1003ec <cprintf>
  1018a2:	83 c4 10             	add    $0x10,%esp
  1018a5:	83 ec 0c             	sub    $0xc,%esp
  1018a8:	68 d5 8e 10 00       	push   $0x108ed5
  1018ad:	e8 c6 ec ff ff       	call   100578 <panic>
  1018b2:	83 ec 0c             	sub    $0xc,%esp
  1018b5:	68 80 fd 10 00       	push   $0x10fd80
  1018ba:	e8 89 30 00 00       	call   104948 <acquire>
  1018bf:	83 c4 10             	add    $0x10,%esp
  1018c2:	eb 13                	jmp    1018d7 <ilock+0x62>
  1018c4:	83 ec 08             	sub    $0x8,%esp
  1018c7:	68 80 fd 10 00       	push   $0x10fd80
  1018cc:	ff 75 08             	pushl  0x8(%ebp)
  1018cf:	e8 7b 2d 00 00       	call   10464f <sleep>
  1018d4:	83 c4 10             	add    $0x10,%esp
  1018d7:	8b 45 08             	mov    0x8(%ebp),%eax
  1018da:	8b 40 0c             	mov    0xc(%eax),%eax
  1018dd:	83 e0 01             	and    $0x1,%eax
  1018e0:	85 c0                	test   %eax,%eax
  1018e2:	75 e0                	jne    1018c4 <ilock+0x4f>
  1018e4:	8b 45 08             	mov    0x8(%ebp),%eax
  1018e7:	8b 40 0c             	mov    0xc(%eax),%eax
  1018ea:	83 c8 01             	or     $0x1,%eax
  1018ed:	89 c2                	mov    %eax,%edx
  1018ef:	8b 45 08             	mov    0x8(%ebp),%eax
  1018f2:	89 50 0c             	mov    %edx,0xc(%eax)
  1018f5:	83 ec 0c             	sub    $0xc,%esp
  1018f8:	68 80 fd 10 00       	push   $0x10fd80
  1018fd:	e8 ad 30 00 00       	call   1049af <release>
  101902:	83 c4 10             	add    $0x10,%esp
  101905:	8b 45 08             	mov    0x8(%ebp),%eax
  101908:	8b 40 0c             	mov    0xc(%eax),%eax
  10190b:	83 e0 02             	and    $0x2,%eax
  10190e:	85 c0                	test   %eax,%eax
  101910:	0f 85 ce 00 00 00    	jne    1019e4 <ilock+0x16f>
  101916:	8b 45 08             	mov    0x8(%ebp),%eax
  101919:	8b 40 04             	mov    0x4(%eax),%eax
  10191c:	c1 e8 03             	shr    $0x3,%eax
  10191f:	8d 50 02             	lea    0x2(%eax),%edx
  101922:	8b 45 08             	mov    0x8(%ebp),%eax
  101925:	8b 00                	mov    (%eax),%eax
  101927:	83 ec 08             	sub    $0x8,%esp
  10192a:	52                   	push   %edx
  10192b:	50                   	push   %eax
  10192c:	e8 af e8 ff ff       	call   1001e0 <bread>
  101931:	83 c4 10             	add    $0x10,%esp
  101934:	89 45 f4             	mov    %eax,-0xc(%ebp)
  101937:	8b 45 f4             	mov    -0xc(%ebp),%eax
  10193a:	8d 50 18             	lea    0x18(%eax),%edx
  10193d:	8b 45 08             	mov    0x8(%ebp),%eax
  101940:	8b 40 04             	mov    0x4(%eax),%eax
  101943:	83 e0 07             	and    $0x7,%eax
  101946:	c1 e0 06             	shl    $0x6,%eax
  101949:	01 d0                	add    %edx,%eax
  10194b:	89 45 f0             	mov    %eax,-0x10(%ebp)
  10194e:	8b 45 f0             	mov    -0x10(%ebp),%eax
  101951:	0f b7 10             	movzwl (%eax),%edx
  101954:	8b 45 08             	mov    0x8(%ebp),%eax
  101957:	66 89 50 10          	mov    %dx,0x10(%eax)
  10195b:	8b 45 f0             	mov    -0x10(%ebp),%eax
  10195e:	0f b7 50 02          	movzwl 0x2(%eax),%edx
  101962:	8b 45 08             	mov    0x8(%ebp),%eax
  101965:	66 89 50 12          	mov    %dx,0x12(%eax)
  101969:	8b 45 f0             	mov    -0x10(%ebp),%eax
  10196c:	0f b7 50 04          	movzwl 0x4(%eax),%edx
  101970:	8b 45 08             	mov    0x8(%ebp),%eax
  101973:	66 89 50 14          	mov    %dx,0x14(%eax)
  101977:	8b 45 f0             	mov    -0x10(%ebp),%eax
  10197a:	0f b7 50 06          	movzwl 0x6(%eax),%edx
  10197e:	8b 45 08             	mov    0x8(%ebp),%eax
  101981:	66 89 50 16          	mov    %dx,0x16(%eax)
  101985:	8b 45 f0             	mov    -0x10(%ebp),%eax
  101988:	8b 50 08             	mov    0x8(%eax),%edx
  10198b:	8b 45 08             	mov    0x8(%ebp),%eax
  10198e:	89 50 18             	mov    %edx,0x18(%eax)
  101991:	8b 45 f0             	mov    -0x10(%ebp),%eax
  101994:	8d 50 0c             	lea    0xc(%eax),%edx
  101997:	8b 45 08             	mov    0x8(%ebp),%eax
  10199a:	83 c0 1c             	add    $0x1c,%eax
  10199d:	83 ec 04             	sub    $0x4,%esp
  1019a0:	6a 34                	push   $0x34
  1019a2:	52                   	push   %edx
  1019a3:	50                   	push   %eax
  1019a4:	e8 4e 32 00 00       	call   104bf7 <memmove>
  1019a9:	83 c4 10             	add    $0x10,%esp
  1019ac:	83 ec 0c             	sub    $0xc,%esp
  1019af:	ff 75 f4             	pushl  -0xc(%ebp)
  1019b2:	e8 a1 e8 ff ff       	call   100258 <brelse>
  1019b7:	83 c4 10             	add    $0x10,%esp
  1019ba:	8b 45 08             	mov    0x8(%ebp),%eax
  1019bd:	8b 40 0c             	mov    0xc(%eax),%eax
  1019c0:	83 c8 02             	or     $0x2,%eax
  1019c3:	89 c2                	mov    %eax,%edx
  1019c5:	8b 45 08             	mov    0x8(%ebp),%eax
  1019c8:	89 50 0c             	mov    %edx,0xc(%eax)
  1019cb:	8b 45 08             	mov    0x8(%ebp),%eax
  1019ce:	0f b7 40 10          	movzwl 0x10(%eax),%eax
  1019d2:	66 85 c0             	test   %ax,%ax
  1019d5:	75 0d                	jne    1019e4 <ilock+0x16f>
  1019d7:	83 ec 0c             	sub    $0xc,%esp
  1019da:	68 db 8e 10 00       	push   $0x108edb
  1019df:	e8 94 eb ff ff       	call   100578 <panic>
  1019e4:	90                   	nop
  1019e5:	c9                   	leave  
  1019e6:	c3                   	ret    

001019e7 <iunlock>:
  1019e7:	55                   	push   %ebp
  1019e8:	89 e5                	mov    %esp,%ebp
  1019ea:	83 ec 08             	sub    $0x8,%esp
  1019ed:	83 7d 08 00          	cmpl   $0x0,0x8(%ebp)
  1019f1:	74 17                	je     101a0a <iunlock+0x23>
  1019f3:	8b 45 08             	mov    0x8(%ebp),%eax
  1019f6:	8b 40 0c             	mov    0xc(%eax),%eax
  1019f9:	83 e0 01             	and    $0x1,%eax
  1019fc:	85 c0                	test   %eax,%eax
  1019fe:	74 0a                	je     101a0a <iunlock+0x23>
  101a00:	8b 45 08             	mov    0x8(%ebp),%eax
  101a03:	8b 40 08             	mov    0x8(%eax),%eax
  101a06:	85 c0                	test   %eax,%eax
  101a08:	7f 0d                	jg     101a17 <iunlock+0x30>
  101a0a:	83 ec 0c             	sub    $0xc,%esp
  101a0d:	68 ea 8e 10 00       	push   $0x108eea
  101a12:	e8 61 eb ff ff       	call   100578 <panic>
  101a17:	83 ec 0c             	sub    $0xc,%esp
  101a1a:	68 80 fd 10 00       	push   $0x10fd80
  101a1f:	e8 24 2f 00 00       	call   104948 <acquire>
  101a24:	83 c4 10             	add    $0x10,%esp
  101a27:	8b 45 08             	mov    0x8(%ebp),%eax
  101a2a:	8b 40 0c             	mov    0xc(%eax),%eax
  101a2d:	83 e0 fe             	and    $0xfffffffe,%eax
  101a30:	89 c2                	mov    %eax,%edx
  101a32:	8b 45 08             	mov    0x8(%ebp),%eax
  101a35:	89 50 0c             	mov    %edx,0xc(%eax)
  101a38:	83 ec 0c             	sub    $0xc,%esp
  101a3b:	ff 75 08             	pushl  0x8(%ebp)
  101a3e:	e8 f7 2c 00 00       	call   10473a <wakeup>
  101a43:	83 c4 10             	add    $0x10,%esp
  101a46:	83 ec 0c             	sub    $0xc,%esp
  101a49:	68 80 fd 10 00       	push   $0x10fd80
  101a4e:	e8 5c 2f 00 00       	call   1049af <release>
  101a53:	83 c4 10             	add    $0x10,%esp
  101a56:	90                   	nop
  101a57:	c9                   	leave  
  101a58:	c3                   	ret    

00101a59 <iput>:
  101a59:	55                   	push   %ebp
  101a5a:	89 e5                	mov    %esp,%ebp
  101a5c:	83 ec 08             	sub    $0x8,%esp
  101a5f:	83 ec 0c             	sub    $0xc,%esp
  101a62:	68 80 fd 10 00       	push   $0x10fd80
  101a67:	e8 dc 2e 00 00       	call   104948 <acquire>
  101a6c:	83 c4 10             	add    $0x10,%esp
  101a6f:	8b 45 08             	mov    0x8(%ebp),%eax
  101a72:	8b 40 08             	mov    0x8(%eax),%eax
  101a75:	83 f8 01             	cmp    $0x1,%eax
  101a78:	0f 85 a9 00 00 00    	jne    101b27 <iput+0xce>
  101a7e:	8b 45 08             	mov    0x8(%ebp),%eax
  101a81:	8b 40 0c             	mov    0xc(%eax),%eax
  101a84:	83 e0 02             	and    $0x2,%eax
  101a87:	85 c0                	test   %eax,%eax
  101a89:	0f 84 98 00 00 00    	je     101b27 <iput+0xce>
  101a8f:	8b 45 08             	mov    0x8(%ebp),%eax
  101a92:	0f b7 40 16          	movzwl 0x16(%eax),%eax
  101a96:	66 85 c0             	test   %ax,%ax
  101a99:	0f 85 88 00 00 00    	jne    101b27 <iput+0xce>
  101a9f:	8b 45 08             	mov    0x8(%ebp),%eax
  101aa2:	8b 40 0c             	mov    0xc(%eax),%eax
  101aa5:	83 e0 01             	and    $0x1,%eax
  101aa8:	85 c0                	test   %eax,%eax
  101aaa:	74 0d                	je     101ab9 <iput+0x60>
  101aac:	83 ec 0c             	sub    $0xc,%esp
  101aaf:	68 f2 8e 10 00       	push   $0x108ef2
  101ab4:	e8 bf ea ff ff       	call   100578 <panic>
  101ab9:	8b 45 08             	mov    0x8(%ebp),%eax
  101abc:	8b 40 0c             	mov    0xc(%eax),%eax
  101abf:	83 c8 01             	or     $0x1,%eax
  101ac2:	89 c2                	mov    %eax,%edx
  101ac4:	8b 45 08             	mov    0x8(%ebp),%eax
  101ac7:	89 50 0c             	mov    %edx,0xc(%eax)
  101aca:	83 ec 0c             	sub    $0xc,%esp
  101acd:	68 80 fd 10 00       	push   $0x10fd80
  101ad2:	e8 d8 2e 00 00       	call   1049af <release>
  101ad7:	83 c4 10             	add    $0x10,%esp
  101ada:	83 ec 0c             	sub    $0xc,%esp
  101add:	ff 75 08             	pushl  0x8(%ebp)
  101ae0:	e8 a3 01 00 00       	call   101c88 <itrunc>
  101ae5:	83 c4 10             	add    $0x10,%esp
  101ae8:	8b 45 08             	mov    0x8(%ebp),%eax
  101aeb:	66 c7 40 10 00 00    	movw   $0x0,0x10(%eax)
  101af1:	83 ec 0c             	sub    $0xc,%esp
  101af4:	ff 75 08             	pushl  0x8(%ebp)
  101af7:	e8 a5 fb ff ff       	call   1016a1 <iupdate>
  101afc:	83 c4 10             	add    $0x10,%esp
  101aff:	83 ec 0c             	sub    $0xc,%esp
  101b02:	68 80 fd 10 00       	push   $0x10fd80
  101b07:	e8 3c 2e 00 00       	call   104948 <acquire>
  101b0c:	83 c4 10             	add    $0x10,%esp
  101b0f:	8b 45 08             	mov    0x8(%ebp),%eax
  101b12:	c7 40 0c 00 00 00 00 	movl   $0x0,0xc(%eax)
  101b19:	83 ec 0c             	sub    $0xc,%esp
  101b1c:	ff 75 08             	pushl  0x8(%ebp)
  101b1f:	e8 16 2c 00 00       	call   10473a <wakeup>
  101b24:	83 c4 10             	add    $0x10,%esp
  101b27:	8b 45 08             	mov    0x8(%ebp),%eax
  101b2a:	8b 40 08             	mov    0x8(%eax),%eax
  101b2d:	8d 50 ff             	lea    -0x1(%eax),%edx
  101b30:	8b 45 08             	mov    0x8(%ebp),%eax
  101b33:	89 50 08             	mov    %edx,0x8(%eax)
  101b36:	83 ec 0c             	sub    $0xc,%esp
  101b39:	68 80 fd 10 00       	push   $0x10fd80
  101b3e:	e8 6c 2e 00 00       	call   1049af <release>
  101b43:	83 c4 10             	add    $0x10,%esp
  101b46:	90                   	nop
  101b47:	c9                   	leave  
  101b48:	c3                   	ret    

00101b49 <iunlockput>:
  101b49:	55                   	push   %ebp
  101b4a:	89 e5                	mov    %esp,%ebp
  101b4c:	83 ec 08             	sub    $0x8,%esp
  101b4f:	83 ec 0c             	sub    $0xc,%esp
  101b52:	ff 75 08             	pushl  0x8(%ebp)
  101b55:	e8 8d fe ff ff       	call   1019e7 <iunlock>
  101b5a:	83 c4 10             	add    $0x10,%esp
  101b5d:	83 ec 0c             	sub    $0xc,%esp
  101b60:	ff 75 08             	pushl  0x8(%ebp)
  101b63:	e8 f1 fe ff ff       	call   101a59 <iput>
  101b68:	83 c4 10             	add    $0x10,%esp
  101b6b:	90                   	nop
  101b6c:	c9                   	leave  
  101b6d:	c3                   	ret    

00101b6e <bmap>:
  101b6e:	55                   	push   %ebp
  101b6f:	89 e5                	mov    %esp,%ebp
  101b71:	83 ec 18             	sub    $0x18,%esp
  101b74:	83 7d 0c 0b          	cmpl   $0xb,0xc(%ebp)
  101b78:	77 42                	ja     101bbc <bmap+0x4e>
  101b7a:	8b 45 08             	mov    0x8(%ebp),%eax
  101b7d:	8b 55 0c             	mov    0xc(%ebp),%edx
  101b80:	83 c2 04             	add    $0x4,%edx
  101b83:	8b 44 90 0c          	mov    0xc(%eax,%edx,4),%eax
  101b87:	89 45 f4             	mov    %eax,-0xc(%ebp)
  101b8a:	83 7d f4 00          	cmpl   $0x0,-0xc(%ebp)
  101b8e:	75 24                	jne    101bb4 <bmap+0x46>
  101b90:	8b 45 08             	mov    0x8(%ebp),%eax
  101b93:	8b 00                	mov    (%eax),%eax
  101b95:	83 ec 0c             	sub    $0xc,%esp
  101b98:	50                   	push   %eax
  101b99:	e8 e2 f7 ff ff       	call   101380 <balloc>
  101b9e:	83 c4 10             	add    $0x10,%esp
  101ba1:	89 45 f4             	mov    %eax,-0xc(%ebp)
  101ba4:	8b 45 08             	mov    0x8(%ebp),%eax
  101ba7:	8b 55 0c             	mov    0xc(%ebp),%edx
  101baa:	8d 4a 04             	lea    0x4(%edx),%ecx
  101bad:	8b 55 f4             	mov    -0xc(%ebp),%edx
  101bb0:	89 54 88 0c          	mov    %edx,0xc(%eax,%ecx,4)
  101bb4:	8b 45 f4             	mov    -0xc(%ebp),%eax
  101bb7:	e9 ca 00 00 00       	jmp    101c86 <bmap+0x118>
  101bbc:	83 6d 0c 0c          	subl   $0xc,0xc(%ebp)
  101bc0:	83 7d 0c 7f          	cmpl   $0x7f,0xc(%ebp)
  101bc4:	0f 87 af 00 00 00    	ja     101c79 <bmap+0x10b>
  101bca:	8b 45 08             	mov    0x8(%ebp),%eax
  101bcd:	8b 40 4c             	mov    0x4c(%eax),%eax
  101bd0:	89 45 f4             	mov    %eax,-0xc(%ebp)
  101bd3:	83 7d f4 00          	cmpl   $0x0,-0xc(%ebp)
  101bd7:	75 1d                	jne    101bf6 <bmap+0x88>
  101bd9:	8b 45 08             	mov    0x8(%ebp),%eax
  101bdc:	8b 00                	mov    (%eax),%eax
  101bde:	83 ec 0c             	sub    $0xc,%esp
  101be1:	50                   	push   %eax
  101be2:	e8 99 f7 ff ff       	call   101380 <balloc>
  101be7:	83 c4 10             	add    $0x10,%esp
  101bea:	89 45 f4             	mov    %eax,-0xc(%ebp)
  101bed:	8b 45 08             	mov    0x8(%ebp),%eax
  101bf0:	8b 55 f4             	mov    -0xc(%ebp),%edx
  101bf3:	89 50 4c             	mov    %edx,0x4c(%eax)
  101bf6:	8b 45 08             	mov    0x8(%ebp),%eax
  101bf9:	8b 00                	mov    (%eax),%eax
  101bfb:	83 ec 08             	sub    $0x8,%esp
  101bfe:	ff 75 f4             	pushl  -0xc(%ebp)
  101c01:	50                   	push   %eax
  101c02:	e8 d9 e5 ff ff       	call   1001e0 <bread>
  101c07:	83 c4 10             	add    $0x10,%esp
  101c0a:	89 45 f0             	mov    %eax,-0x10(%ebp)
  101c0d:	8b 45 f0             	mov    -0x10(%ebp),%eax
  101c10:	83 c0 18             	add    $0x18,%eax
  101c13:	89 45 ec             	mov    %eax,-0x14(%ebp)
  101c16:	8b 45 0c             	mov    0xc(%ebp),%eax
  101c19:	8d 14 85 00 00 00 00 	lea    0x0(,%eax,4),%edx
  101c20:	8b 45 ec             	mov    -0x14(%ebp),%eax
  101c23:	01 d0                	add    %edx,%eax
  101c25:	8b 00                	mov    (%eax),%eax
  101c27:	89 45 f4             	mov    %eax,-0xc(%ebp)
  101c2a:	83 7d f4 00          	cmpl   $0x0,-0xc(%ebp)
  101c2e:	75 36                	jne    101c66 <bmap+0xf8>
  101c30:	8b 45 08             	mov    0x8(%ebp),%eax
  101c33:	8b 00                	mov    (%eax),%eax
  101c35:	83 ec 0c             	sub    $0xc,%esp
  101c38:	50                   	push   %eax
  101c39:	e8 42 f7 ff ff       	call   101380 <balloc>
  101c3e:	83 c4 10             	add    $0x10,%esp
  101c41:	89 45 f4             	mov    %eax,-0xc(%ebp)
  101c44:	8b 45 0c             	mov    0xc(%ebp),%eax
  101c47:	8d 14 85 00 00 00 00 	lea    0x0(,%eax,4),%edx
  101c4e:	8b 45 ec             	mov    -0x14(%ebp),%eax
  101c51:	01 c2                	add    %eax,%edx
  101c53:	8b 45 f4             	mov    -0xc(%ebp),%eax
  101c56:	89 02                	mov    %eax,(%edx)
  101c58:	83 ec 0c             	sub    $0xc,%esp
  101c5b:	ff 75 f0             	pushl  -0x10(%ebp)
  101c5e:	e8 b6 e5 ff ff       	call   100219 <bwrite>
  101c63:	83 c4 10             	add    $0x10,%esp
  101c66:	83 ec 0c             	sub    $0xc,%esp
  101c69:	ff 75 f0             	pushl  -0x10(%ebp)
  101c6c:	e8 e7 e5 ff ff       	call   100258 <brelse>
  101c71:	83 c4 10             	add    $0x10,%esp
  101c74:	8b 45 f4             	mov    -0xc(%ebp),%eax
  101c77:	eb 0d                	jmp    101c86 <bmap+0x118>
  101c79:	83 ec 0c             	sub    $0xc,%esp
  101c7c:	68 fc 8e 10 00       	push   $0x108efc
  101c81:	e8 f2 e8 ff ff       	call   100578 <panic>
  101c86:	c9                   	leave  
  101c87:	c3                   	ret    

00101c88 <itrunc>:
  101c88:	55                   	push   %ebp
  101c89:	89 e5                	mov    %esp,%ebp
  101c8b:	83 ec 18             	sub    $0x18,%esp
  101c8e:	c7 45 f4 00 00 00 00 	movl   $0x0,-0xc(%ebp)
  101c95:	eb 45                	jmp    101cdc <itrunc+0x54>
  101c97:	8b 45 08             	mov    0x8(%ebp),%eax
  101c9a:	8b 55 f4             	mov    -0xc(%ebp),%edx
  101c9d:	83 c2 04             	add    $0x4,%edx
  101ca0:	8b 44 90 0c          	mov    0xc(%eax,%edx,4),%eax
  101ca4:	85 c0                	test   %eax,%eax
  101ca6:	74 30                	je     101cd8 <itrunc+0x50>
  101ca8:	8b 45 08             	mov    0x8(%ebp),%eax
  101cab:	8b 55 f4             	mov    -0xc(%ebp),%edx
  101cae:	83 c2 04             	add    $0x4,%edx
  101cb1:	8b 44 90 0c          	mov    0xc(%eax,%edx,4),%eax
  101cb5:	8b 55 08             	mov    0x8(%ebp),%edx
  101cb8:	8b 12                	mov    (%edx),%edx
  101cba:	83 ec 08             	sub    $0x8,%esp
  101cbd:	50                   	push   %eax
  101cbe:	52                   	push   %edx
  101cbf:	e8 f1 f7 ff ff       	call   1014b5 <bfree>
  101cc4:	83 c4 10             	add    $0x10,%esp
  101cc7:	8b 45 08             	mov    0x8(%ebp),%eax
  101cca:	8b 55 f4             	mov    -0xc(%ebp),%edx
  101ccd:	83 c2 04             	add    $0x4,%edx
  101cd0:	c7 44 90 0c 00 00 00 	movl   $0x0,0xc(%eax,%edx,4)
  101cd7:	00 
  101cd8:	83 45 f4 01          	addl   $0x1,-0xc(%ebp)
  101cdc:	83 7d f4 0b          	cmpl   $0xb,-0xc(%ebp)
  101ce0:	7e b5                	jle    101c97 <itrunc+0xf>
  101ce2:	8b 45 08             	mov    0x8(%ebp),%eax
  101ce5:	8b 40 4c             	mov    0x4c(%eax),%eax
  101ce8:	85 c0                	test   %eax,%eax
  101cea:	0f 84 a1 00 00 00    	je     101d91 <itrunc+0x109>
  101cf0:	8b 45 08             	mov    0x8(%ebp),%eax
  101cf3:	8b 50 4c             	mov    0x4c(%eax),%edx
  101cf6:	8b 45 08             	mov    0x8(%ebp),%eax
  101cf9:	8b 00                	mov    (%eax),%eax
  101cfb:	83 ec 08             	sub    $0x8,%esp
  101cfe:	52                   	push   %edx
  101cff:	50                   	push   %eax
  101d00:	e8 db e4 ff ff       	call   1001e0 <bread>
  101d05:	83 c4 10             	add    $0x10,%esp
  101d08:	89 45 ec             	mov    %eax,-0x14(%ebp)
  101d0b:	8b 45 ec             	mov    -0x14(%ebp),%eax
  101d0e:	83 c0 18             	add    $0x18,%eax
  101d11:	89 45 e8             	mov    %eax,-0x18(%ebp)
  101d14:	c7 45 f0 00 00 00 00 	movl   $0x0,-0x10(%ebp)
  101d1b:	eb 3c                	jmp    101d59 <itrunc+0xd1>
  101d1d:	8b 45 f0             	mov    -0x10(%ebp),%eax
  101d20:	8d 14 85 00 00 00 00 	lea    0x0(,%eax,4),%edx
  101d27:	8b 45 e8             	mov    -0x18(%ebp),%eax
  101d2a:	01 d0                	add    %edx,%eax
  101d2c:	8b 00                	mov    (%eax),%eax
  101d2e:	85 c0                	test   %eax,%eax
  101d30:	74 23                	je     101d55 <itrunc+0xcd>
  101d32:	8b 45 f0             	mov    -0x10(%ebp),%eax
  101d35:	8d 14 85 00 00 00 00 	lea    0x0(,%eax,4),%edx
  101d3c:	8b 45 e8             	mov    -0x18(%ebp),%eax
  101d3f:	01 d0                	add    %edx,%eax
  101d41:	8b 00                	mov    (%eax),%eax
  101d43:	8b 55 08             	mov    0x8(%ebp),%edx
  101d46:	8b 12                	mov    (%edx),%edx
  101d48:	83 ec 08             	sub    $0x8,%esp
  101d4b:	50                   	push   %eax
  101d4c:	52                   	push   %edx
  101d4d:	e8 63 f7 ff ff       	call   1014b5 <bfree>
  101d52:	83 c4 10             	add    $0x10,%esp
  101d55:	83 45 f0 01          	addl   $0x1,-0x10(%ebp)
  101d59:	8b 45 f0             	mov    -0x10(%ebp),%eax
  101d5c:	83 f8 7f             	cmp    $0x7f,%eax
  101d5f:	76 bc                	jbe    101d1d <itrunc+0x95>
  101d61:	83 ec 0c             	sub    $0xc,%esp
  101d64:	ff 75 ec             	pushl  -0x14(%ebp)
  101d67:	e8 ec e4 ff ff       	call   100258 <brelse>
  101d6c:	83 c4 10             	add    $0x10,%esp
  101d6f:	8b 45 08             	mov    0x8(%ebp),%eax
  101d72:	8b 40 4c             	mov    0x4c(%eax),%eax
  101d75:	8b 55 08             	mov    0x8(%ebp),%edx
  101d78:	8b 12                	mov    (%edx),%edx
  101d7a:	83 ec 08             	sub    $0x8,%esp
  101d7d:	50                   	push   %eax
  101d7e:	52                   	push   %edx
  101d7f:	e8 31 f7 ff ff       	call   1014b5 <bfree>
  101d84:	83 c4 10             	add    $0x10,%esp
  101d87:	8b 45 08             	mov    0x8(%ebp),%eax
  101d8a:	c7 40 4c 00 00 00 00 	movl   $0x0,0x4c(%eax)
  101d91:	8b 45 08             	mov    0x8(%ebp),%eax
  101d94:	c7 40 18 00 00 00 00 	movl   $0x0,0x18(%eax)
  101d9b:	83 ec 0c             	sub    $0xc,%esp
  101d9e:	ff 75 08             	pushl  0x8(%ebp)
  101da1:	e8 fb f8 ff ff       	call   1016a1 <iupdate>
  101da6:	83 c4 10             	add    $0x10,%esp
  101da9:	90                   	nop
  101daa:	c9                   	leave  
  101dab:	c3                   	ret    

00101dac <stati>:
  101dac:	55                   	push   %ebp
  101dad:	89 e5                	mov    %esp,%ebp
  101daf:	8b 45 08             	mov    0x8(%ebp),%eax
  101db2:	8b 00                	mov    (%eax),%eax
  101db4:	89 c2                	mov    %eax,%edx
  101db6:	8b 45 0c             	mov    0xc(%ebp),%eax
  101db9:	89 50 04             	mov    %edx,0x4(%eax)
  101dbc:	8b 45 08             	mov    0x8(%ebp),%eax
  101dbf:	8b 50 04             	mov    0x4(%eax),%edx
  101dc2:	8b 45 0c             	mov    0xc(%ebp),%eax
  101dc5:	89 50 08             	mov    %edx,0x8(%eax)
  101dc8:	8b 45 08             	mov    0x8(%ebp),%eax
  101dcb:	0f b7 50 10          	movzwl 0x10(%eax),%edx
  101dcf:	8b 45 0c             	mov    0xc(%ebp),%eax
  101dd2:	66 89 10             	mov    %dx,(%eax)
  101dd5:	8b 45 08             	mov    0x8(%ebp),%eax
  101dd8:	0f b7 50 16          	movzwl 0x16(%eax),%edx
  101ddc:	8b 45 0c             	mov    0xc(%ebp),%eax
  101ddf:	66 89 50 0c          	mov    %dx,0xc(%eax)
  101de3:	8b 45 08             	mov    0x8(%ebp),%eax
  101de6:	8b 50 18             	mov    0x18(%eax),%edx
  101de9:	8b 45 0c             	mov    0xc(%ebp),%eax
  101dec:	89 50 10             	mov    %edx,0x10(%eax)
  101def:	90                   	nop
  101df0:	5d                   	pop    %ebp
  101df1:	c3                   	ret    

00101df2 <readi>:
  101df2:	55                   	push   %ebp
  101df3:	89 e5                	mov    %esp,%ebp
  101df5:	83 ec 18             	sub    $0x18,%esp
  101df8:	8b 45 08             	mov    0x8(%ebp),%eax
  101dfb:	0f b7 40 10          	movzwl 0x10(%eax),%eax
  101dff:	66 83 f8 03          	cmp    $0x3,%ax
  101e03:	75 5c                	jne    101e61 <readi+0x6f>
  101e05:	8b 45 08             	mov    0x8(%ebp),%eax
  101e08:	0f b7 40 12          	movzwl 0x12(%eax),%eax
  101e0c:	66 85 c0             	test   %ax,%ax
  101e0f:	78 20                	js     101e31 <readi+0x3f>
  101e11:	8b 45 08             	mov    0x8(%ebp),%eax
  101e14:	0f b7 40 12          	movzwl 0x12(%eax),%eax
  101e18:	66 83 f8 09          	cmp    $0x9,%ax
  101e1c:	7f 13                	jg     101e31 <readi+0x3f>
  101e1e:	8b 45 08             	mov    0x8(%ebp),%eax
  101e21:	0f b7 40 12          	movzwl 0x12(%eax),%eax
  101e25:	98                   	cwtl   
  101e26:	8b 04 c5 20 fd 10 00 	mov    0x10fd20(,%eax,8),%eax
  101e2d:	85 c0                	test   %eax,%eax
  101e2f:	75 0a                	jne    101e3b <readi+0x49>
  101e31:	b8 ff ff ff ff       	mov    $0xffffffff,%eax
  101e36:	e9 0c 01 00 00       	jmp    101f47 <readi+0x155>
  101e3b:	8b 45 08             	mov    0x8(%ebp),%eax
  101e3e:	0f b7 40 12          	movzwl 0x12(%eax),%eax
  101e42:	98                   	cwtl   
  101e43:	8b 04 c5 20 fd 10 00 	mov    0x10fd20(,%eax,8),%eax
  101e4a:	8b 55 14             	mov    0x14(%ebp),%edx
  101e4d:	83 ec 04             	sub    $0x4,%esp
  101e50:	52                   	push   %edx
  101e51:	ff 75 0c             	pushl  0xc(%ebp)
  101e54:	ff 75 08             	pushl  0x8(%ebp)
  101e57:	ff d0                	call   *%eax
  101e59:	83 c4 10             	add    $0x10,%esp
  101e5c:	e9 e6 00 00 00       	jmp    101f47 <readi+0x155>
  101e61:	8b 45 08             	mov    0x8(%ebp),%eax
  101e64:	8b 40 18             	mov    0x18(%eax),%eax
  101e67:	39 45 10             	cmp    %eax,0x10(%ebp)
  101e6a:	77 0d                	ja     101e79 <readi+0x87>
  101e6c:	8b 55 10             	mov    0x10(%ebp),%edx
  101e6f:	8b 45 14             	mov    0x14(%ebp),%eax
  101e72:	01 d0                	add    %edx,%eax
  101e74:	39 45 10             	cmp    %eax,0x10(%ebp)
  101e77:	76 0a                	jbe    101e83 <readi+0x91>
  101e79:	b8 ff ff ff ff       	mov    $0xffffffff,%eax
  101e7e:	e9 c4 00 00 00       	jmp    101f47 <readi+0x155>
  101e83:	8b 55 10             	mov    0x10(%ebp),%edx
  101e86:	8b 45 14             	mov    0x14(%ebp),%eax
  101e89:	01 c2                	add    %eax,%edx
  101e8b:	8b 45 08             	mov    0x8(%ebp),%eax
  101e8e:	8b 40 18             	mov    0x18(%eax),%eax
  101e91:	39 c2                	cmp    %eax,%edx
  101e93:	76 0c                	jbe    101ea1 <readi+0xaf>
  101e95:	8b 45 08             	mov    0x8(%ebp),%eax
  101e98:	8b 40 18             	mov    0x18(%eax),%eax
  101e9b:	2b 45 10             	sub    0x10(%ebp),%eax
  101e9e:	89 45 14             	mov    %eax,0x14(%ebp)
  101ea1:	c7 45 f4 00 00 00 00 	movl   $0x0,-0xc(%ebp)
  101ea8:	e9 8b 00 00 00       	jmp    101f38 <readi+0x146>
  101ead:	8b 45 10             	mov    0x10(%ebp),%eax
  101eb0:	c1 e8 09             	shr    $0x9,%eax
  101eb3:	83 ec 08             	sub    $0x8,%esp
  101eb6:	50                   	push   %eax
  101eb7:	ff 75 08             	pushl  0x8(%ebp)
  101eba:	e8 af fc ff ff       	call   101b6e <bmap>
  101ebf:	83 c4 10             	add    $0x10,%esp
  101ec2:	89 c2                	mov    %eax,%edx
  101ec4:	8b 45 08             	mov    0x8(%ebp),%eax
  101ec7:	8b 00                	mov    (%eax),%eax
  101ec9:	83 ec 08             	sub    $0x8,%esp
  101ecc:	52                   	push   %edx
  101ecd:	50                   	push   %eax
  101ece:	e8 0d e3 ff ff       	call   1001e0 <bread>
  101ed3:	83 c4 10             	add    $0x10,%esp
  101ed6:	89 45 f0             	mov    %eax,-0x10(%ebp)
  101ed9:	8b 45 10             	mov    0x10(%ebp),%eax
  101edc:	25 ff 01 00 00       	and    $0x1ff,%eax
  101ee1:	ba 00 02 00 00       	mov    $0x200,%edx
  101ee6:	29 c2                	sub    %eax,%edx
  101ee8:	8b 45 14             	mov    0x14(%ebp),%eax
  101eeb:	2b 45 f4             	sub    -0xc(%ebp),%eax
  101eee:	39 c2                	cmp    %eax,%edx
  101ef0:	0f 46 c2             	cmovbe %edx,%eax
  101ef3:	89 45 ec             	mov    %eax,-0x14(%ebp)
  101ef6:	8b 45 f0             	mov    -0x10(%ebp),%eax
  101ef9:	8d 50 18             	lea    0x18(%eax),%edx
  101efc:	8b 45 10             	mov    0x10(%ebp),%eax
  101eff:	25 ff 01 00 00       	and    $0x1ff,%eax
  101f04:	01 d0                	add    %edx,%eax
  101f06:	83 ec 04             	sub    $0x4,%esp
  101f09:	ff 75 ec             	pushl  -0x14(%ebp)
  101f0c:	50                   	push   %eax
  101f0d:	ff 75 0c             	pushl  0xc(%ebp)
  101f10:	e8 e2 2c 00 00       	call   104bf7 <memmove>
  101f15:	83 c4 10             	add    $0x10,%esp
  101f18:	83 ec 0c             	sub    $0xc,%esp
  101f1b:	ff 75 f0             	pushl  -0x10(%ebp)
  101f1e:	e8 35 e3 ff ff       	call   100258 <brelse>
  101f23:	83 c4 10             	add    $0x10,%esp
  101f26:	8b 45 ec             	mov    -0x14(%ebp),%eax
  101f29:	01 45 f4             	add    %eax,-0xc(%ebp)
  101f2c:	8b 45 ec             	mov    -0x14(%ebp),%eax
  101f2f:	01 45 10             	add    %eax,0x10(%ebp)
  101f32:	8b 45 ec             	mov    -0x14(%ebp),%eax
  101f35:	01 45 0c             	add    %eax,0xc(%ebp)
  101f38:	8b 45 f4             	mov    -0xc(%ebp),%eax
  101f3b:	3b 45 14             	cmp    0x14(%ebp),%eax
  101f3e:	0f 82 69 ff ff ff    	jb     101ead <readi+0xbb>
  101f44:	8b 45 14             	mov    0x14(%ebp),%eax
  101f47:	c9                   	leave  
  101f48:	c3                   	ret    

00101f49 <writei>:
  101f49:	55                   	push   %ebp
  101f4a:	89 e5                	mov    %esp,%ebp
  101f4c:	83 ec 18             	sub    $0x18,%esp
  101f4f:	8b 45 08             	mov    0x8(%ebp),%eax
  101f52:	0f b7 40 10          	movzwl 0x10(%eax),%eax
  101f56:	66 83 f8 03          	cmp    $0x3,%ax
  101f5a:	75 5c                	jne    101fb8 <writei+0x6f>
  101f5c:	8b 45 08             	mov    0x8(%ebp),%eax
  101f5f:	0f b7 40 12          	movzwl 0x12(%eax),%eax
  101f63:	66 85 c0             	test   %ax,%ax
  101f66:	78 20                	js     101f88 <writei+0x3f>
  101f68:	8b 45 08             	mov    0x8(%ebp),%eax
  101f6b:	0f b7 40 12          	movzwl 0x12(%eax),%eax
  101f6f:	66 83 f8 09          	cmp    $0x9,%ax
  101f73:	7f 13                	jg     101f88 <writei+0x3f>
  101f75:	8b 45 08             	mov    0x8(%ebp),%eax
  101f78:	0f b7 40 12          	movzwl 0x12(%eax),%eax
  101f7c:	98                   	cwtl   
  101f7d:	8b 04 c5 24 fd 10 00 	mov    0x10fd24(,%eax,8),%eax
  101f84:	85 c0                	test   %eax,%eax
  101f86:	75 0a                	jne    101f92 <writei+0x49>
  101f88:	b8 ff ff ff ff       	mov    $0xffffffff,%eax
  101f8d:	e9 3e 01 00 00       	jmp    1020d0 <writei+0x187>
  101f92:	8b 45 08             	mov    0x8(%ebp),%eax
  101f95:	0f b7 40 12          	movzwl 0x12(%eax),%eax
  101f99:	98                   	cwtl   
  101f9a:	8b 04 c5 24 fd 10 00 	mov    0x10fd24(,%eax,8),%eax
  101fa1:	8b 55 14             	mov    0x14(%ebp),%edx
  101fa4:	83 ec 04             	sub    $0x4,%esp
  101fa7:	52                   	push   %edx
  101fa8:	ff 75 0c             	pushl  0xc(%ebp)
  101fab:	ff 75 08             	pushl  0x8(%ebp)
  101fae:	ff d0                	call   *%eax
  101fb0:	83 c4 10             	add    $0x10,%esp
  101fb3:	e9 18 01 00 00       	jmp    1020d0 <writei+0x187>
  101fb8:	8b 45 08             	mov    0x8(%ebp),%eax
  101fbb:	8b 40 18             	mov    0x18(%eax),%eax
  101fbe:	39 45 10             	cmp    %eax,0x10(%ebp)
  101fc1:	77 0d                	ja     101fd0 <writei+0x87>
  101fc3:	8b 55 10             	mov    0x10(%ebp),%edx
  101fc6:	8b 45 14             	mov    0x14(%ebp),%eax
  101fc9:	01 d0                	add    %edx,%eax
  101fcb:	39 45 10             	cmp    %eax,0x10(%ebp)
  101fce:	76 0a                	jbe    101fda <writei+0x91>
  101fd0:	b8 ff ff ff ff       	mov    $0xffffffff,%eax
  101fd5:	e9 f6 00 00 00       	jmp    1020d0 <writei+0x187>
  101fda:	8b 55 10             	mov    0x10(%ebp),%edx
  101fdd:	8b 45 14             	mov    0x14(%ebp),%eax
  101fe0:	01 d0                	add    %edx,%eax
  101fe2:	3d 00 18 01 00       	cmp    $0x11800,%eax
  101fe7:	76 0b                	jbe    101ff4 <writei+0xab>
  101fe9:	b8 00 18 01 00       	mov    $0x11800,%eax
  101fee:	2b 45 10             	sub    0x10(%ebp),%eax
  101ff1:	89 45 14             	mov    %eax,0x14(%ebp)
  101ff4:	c7 45 f4 00 00 00 00 	movl   $0x0,-0xc(%ebp)
  101ffb:	e9 99 00 00 00       	jmp    102099 <writei+0x150>
  102000:	8b 45 10             	mov    0x10(%ebp),%eax
  102003:	c1 e8 09             	shr    $0x9,%eax
  102006:	83 ec 08             	sub    $0x8,%esp
  102009:	50                   	push   %eax
  10200a:	ff 75 08             	pushl  0x8(%ebp)
  10200d:	e8 5c fb ff ff       	call   101b6e <bmap>
  102012:	83 c4 10             	add    $0x10,%esp
  102015:	89 c2                	mov    %eax,%edx
  102017:	8b 45 08             	mov    0x8(%ebp),%eax
  10201a:	8b 00                	mov    (%eax),%eax
  10201c:	83 ec 08             	sub    $0x8,%esp
  10201f:	52                   	push   %edx
  102020:	50                   	push   %eax
  102021:	e8 ba e1 ff ff       	call   1001e0 <bread>
  102026:	83 c4 10             	add    $0x10,%esp
  102029:	89 45 f0             	mov    %eax,-0x10(%ebp)
  10202c:	8b 45 10             	mov    0x10(%ebp),%eax
  10202f:	25 ff 01 00 00       	and    $0x1ff,%eax
  102034:	ba 00 02 00 00       	mov    $0x200,%edx
  102039:	29 c2                	sub    %eax,%edx
  10203b:	8b 45 14             	mov    0x14(%ebp),%eax
  10203e:	2b 45 f4             	sub    -0xc(%ebp),%eax
  102041:	39 c2                	cmp    %eax,%edx
  102043:	0f 46 c2             	cmovbe %edx,%eax
  102046:	89 45 ec             	mov    %eax,-0x14(%ebp)
  102049:	8b 45 f0             	mov    -0x10(%ebp),%eax
  10204c:	8d 50 18             	lea    0x18(%eax),%edx
  10204f:	8b 45 10             	mov    0x10(%ebp),%eax
  102052:	25 ff 01 00 00       	and    $0x1ff,%eax
  102057:	01 d0                	add    %edx,%eax
  102059:	83 ec 04             	sub    $0x4,%esp
  10205c:	ff 75 ec             	pushl  -0x14(%ebp)
  10205f:	ff 75 0c             	pushl  0xc(%ebp)
  102062:	50                   	push   %eax
  102063:	e8 8f 2b 00 00       	call   104bf7 <memmove>
  102068:	83 c4 10             	add    $0x10,%esp
  10206b:	83 ec 0c             	sub    $0xc,%esp
  10206e:	ff 75 f0             	pushl  -0x10(%ebp)
  102071:	e8 a3 e1 ff ff       	call   100219 <bwrite>
  102076:	83 c4 10             	add    $0x10,%esp
  102079:	83 ec 0c             	sub    $0xc,%esp
  10207c:	ff 75 f0             	pushl  -0x10(%ebp)
  10207f:	e8 d4 e1 ff ff       	call   100258 <brelse>
  102084:	83 c4 10             	add    $0x10,%esp
  102087:	8b 45 ec             	mov    -0x14(%ebp),%eax
  10208a:	01 45 f4             	add    %eax,-0xc(%ebp)
  10208d:	8b 45 ec             	mov    -0x14(%ebp),%eax
  102090:	01 45 10             	add    %eax,0x10(%ebp)
  102093:	8b 45 ec             	mov    -0x14(%ebp),%eax
  102096:	01 45 0c             	add    %eax,0xc(%ebp)
  102099:	8b 45 f4             	mov    -0xc(%ebp),%eax
  10209c:	3b 45 14             	cmp    0x14(%ebp),%eax
  10209f:	0f 82 5b ff ff ff    	jb     102000 <writei+0xb7>
  1020a5:	83 7d 14 00          	cmpl   $0x0,0x14(%ebp)
  1020a9:	74 22                	je     1020cd <writei+0x184>
  1020ab:	8b 45 08             	mov    0x8(%ebp),%eax
  1020ae:	8b 40 18             	mov    0x18(%eax),%eax
  1020b1:	39 45 10             	cmp    %eax,0x10(%ebp)
  1020b4:	76 17                	jbe    1020cd <writei+0x184>
  1020b6:	8b 45 08             	mov    0x8(%ebp),%eax
  1020b9:	8b 55 10             	mov    0x10(%ebp),%edx
  1020bc:	89 50 18             	mov    %edx,0x18(%eax)
  1020bf:	83 ec 0c             	sub    $0xc,%esp
  1020c2:	ff 75 08             	pushl  0x8(%ebp)
  1020c5:	e8 d7 f5 ff ff       	call   1016a1 <iupdate>
  1020ca:	83 c4 10             	add    $0x10,%esp
  1020cd:	8b 45 14             	mov    0x14(%ebp),%eax
  1020d0:	c9                   	leave  
  1020d1:	c3                   	ret    

001020d2 <namecmp>:
  1020d2:	55                   	push   %ebp
  1020d3:	89 e5                	mov    %esp,%ebp
  1020d5:	83 ec 08             	sub    $0x8,%esp
  1020d8:	83 ec 04             	sub    $0x4,%esp
  1020db:	6a 0e                	push   $0xe
  1020dd:	ff 75 0c             	pushl  0xc(%ebp)
  1020e0:	ff 75 08             	pushl  0x8(%ebp)
  1020e3:	e8 a5 2b 00 00       	call   104c8d <strncmp>
  1020e8:	83 c4 10             	add    $0x10,%esp
  1020eb:	c9                   	leave  
  1020ec:	c3                   	ret    

001020ed <dirlookup>:
  1020ed:	55                   	push   %ebp
  1020ee:	89 e5                	mov    %esp,%ebp
  1020f0:	83 ec 18             	sub    $0x18,%esp
  1020f3:	8b 45 08             	mov    0x8(%ebp),%eax
  1020f6:	0f b7 40 10          	movzwl 0x10(%eax),%eax
  1020fa:	66 83 f8 01          	cmp    $0x1,%ax
  1020fe:	74 0d                	je     10210d <dirlookup+0x20>
  102100:	83 ec 0c             	sub    $0xc,%esp
  102103:	68 0f 8f 10 00       	push   $0x108f0f
  102108:	e8 6b e4 ff ff       	call   100578 <panic>
  10210d:	c7 45 f4 00 00 00 00 	movl   $0x0,-0xc(%ebp)
  102114:	e9 da 00 00 00       	jmp    1021f3 <dirlookup+0x106>
  102119:	8b 45 f4             	mov    -0xc(%ebp),%eax
  10211c:	c1 e8 09             	shr    $0x9,%eax
  10211f:	83 ec 08             	sub    $0x8,%esp
  102122:	50                   	push   %eax
  102123:	ff 75 08             	pushl  0x8(%ebp)
  102126:	e8 43 fa ff ff       	call   101b6e <bmap>
  10212b:	83 c4 10             	add    $0x10,%esp
  10212e:	89 c2                	mov    %eax,%edx
  102130:	8b 45 08             	mov    0x8(%ebp),%eax
  102133:	8b 00                	mov    (%eax),%eax
  102135:	83 ec 08             	sub    $0x8,%esp
  102138:	52                   	push   %edx
  102139:	50                   	push   %eax
  10213a:	e8 a1 e0 ff ff       	call   1001e0 <bread>
  10213f:	83 c4 10             	add    $0x10,%esp
  102142:	89 45 ec             	mov    %eax,-0x14(%ebp)
  102145:	8b 45 ec             	mov    -0x14(%ebp),%eax
  102148:	83 c0 18             	add    $0x18,%eax
  10214b:	89 45 f0             	mov    %eax,-0x10(%ebp)
  10214e:	eb 7a                	jmp    1021ca <dirlookup+0xdd>
  102150:	8b 45 f0             	mov    -0x10(%ebp),%eax
  102153:	0f b7 00             	movzwl (%eax),%eax
  102156:	66 85 c0             	test   %ax,%ax
  102159:	74 6a                	je     1021c5 <dirlookup+0xd8>
  10215b:	8b 45 f0             	mov    -0x10(%ebp),%eax
  10215e:	83 c0 02             	add    $0x2,%eax
  102161:	83 ec 08             	sub    $0x8,%esp
  102164:	50                   	push   %eax
  102165:	ff 75 0c             	pushl  0xc(%ebp)
  102168:	e8 65 ff ff ff       	call   1020d2 <namecmp>
  10216d:	83 c4 10             	add    $0x10,%esp
  102170:	85 c0                	test   %eax,%eax
  102172:	75 52                	jne    1021c6 <dirlookup+0xd9>
  102174:	83 7d 10 00          	cmpl   $0x0,0x10(%ebp)
  102178:	74 1b                	je     102195 <dirlookup+0xa8>
  10217a:	8b 55 f0             	mov    -0x10(%ebp),%edx
  10217d:	8b 45 f4             	mov    -0xc(%ebp),%eax
  102180:	01 d0                	add    %edx,%eax
  102182:	89 c2                	mov    %eax,%edx
  102184:	8b 45 ec             	mov    -0x14(%ebp),%eax
  102187:	83 c0 18             	add    $0x18,%eax
  10218a:	29 c2                	sub    %eax,%edx
  10218c:	89 d0                	mov    %edx,%eax
  10218e:	89 c2                	mov    %eax,%edx
  102190:	8b 45 10             	mov    0x10(%ebp),%eax
  102193:	89 10                	mov    %edx,(%eax)
  102195:	8b 45 f0             	mov    -0x10(%ebp),%eax
  102198:	0f b7 00             	movzwl (%eax),%eax
  10219b:	0f b7 c0             	movzwl %ax,%eax
  10219e:	89 45 e8             	mov    %eax,-0x18(%ebp)
  1021a1:	83 ec 0c             	sub    $0xc,%esp
  1021a4:	ff 75 ec             	pushl  -0x14(%ebp)
  1021a7:	e8 ac e0 ff ff       	call   100258 <brelse>
  1021ac:	83 c4 10             	add    $0x10,%esp
  1021af:	8b 45 08             	mov    0x8(%ebp),%eax
  1021b2:	8b 00                	mov    (%eax),%eax
  1021b4:	83 ec 08             	sub    $0x8,%esp
  1021b7:	ff 75 e8             	pushl  -0x18(%ebp)
  1021ba:	50                   	push   %eax
  1021bb:	e8 9c f5 ff ff       	call   10175c <iget>
  1021c0:	83 c4 10             	add    $0x10,%esp
  1021c3:	eb 42                	jmp    102207 <dirlookup+0x11a>
  1021c5:	90                   	nop
  1021c6:	83 45 f0 10          	addl   $0x10,-0x10(%ebp)
  1021ca:	8b 45 ec             	mov    -0x14(%ebp),%eax
  1021cd:	83 c0 18             	add    $0x18,%eax
  1021d0:	05 00 02 00 00       	add    $0x200,%eax
  1021d5:	39 45 f0             	cmp    %eax,-0x10(%ebp)
  1021d8:	0f 82 72 ff ff ff    	jb     102150 <dirlookup+0x63>
  1021de:	83 ec 0c             	sub    $0xc,%esp
  1021e1:	ff 75 ec             	pushl  -0x14(%ebp)
  1021e4:	e8 6f e0 ff ff       	call   100258 <brelse>
  1021e9:	83 c4 10             	add    $0x10,%esp
  1021ec:	81 45 f4 00 02 00 00 	addl   $0x200,-0xc(%ebp)
  1021f3:	8b 45 08             	mov    0x8(%ebp),%eax
  1021f6:	8b 40 18             	mov    0x18(%eax),%eax
  1021f9:	39 45 f4             	cmp    %eax,-0xc(%ebp)
  1021fc:	0f 82 17 ff ff ff    	jb     102119 <dirlookup+0x2c>
  102202:	b8 00 00 00 00       	mov    $0x0,%eax
  102207:	c9                   	leave  
  102208:	c3                   	ret    

00102209 <dirlink>:
  102209:	55                   	push   %ebp
  10220a:	89 e5                	mov    %esp,%ebp
  10220c:	83 ec 28             	sub    $0x28,%esp
  10220f:	83 ec 04             	sub    $0x4,%esp
  102212:	6a 00                	push   $0x0
  102214:	ff 75 0c             	pushl  0xc(%ebp)
  102217:	ff 75 08             	pushl  0x8(%ebp)
  10221a:	e8 ce fe ff ff       	call   1020ed <dirlookup>
  10221f:	83 c4 10             	add    $0x10,%esp
  102222:	89 45 f0             	mov    %eax,-0x10(%ebp)
  102225:	83 7d f0 00          	cmpl   $0x0,-0x10(%ebp)
  102229:	74 18                	je     102243 <dirlink+0x3a>
  10222b:	83 ec 0c             	sub    $0xc,%esp
  10222e:	ff 75 f0             	pushl  -0x10(%ebp)
  102231:	e8 23 f8 ff ff       	call   101a59 <iput>
  102236:	83 c4 10             	add    $0x10,%esp
  102239:	b8 ff ff ff ff       	mov    $0xffffffff,%eax
  10223e:	e9 9c 00 00 00       	jmp    1022df <dirlink+0xd6>
  102243:	c7 45 f4 00 00 00 00 	movl   $0x0,-0xc(%ebp)
  10224a:	eb 39                	jmp    102285 <dirlink+0x7c>
  10224c:	8b 45 f4             	mov    -0xc(%ebp),%eax
  10224f:	6a 10                	push   $0x10
  102251:	50                   	push   %eax
  102252:	8d 45 e0             	lea    -0x20(%ebp),%eax
  102255:	50                   	push   %eax
  102256:	ff 75 08             	pushl  0x8(%ebp)
  102259:	e8 94 fb ff ff       	call   101df2 <readi>
  10225e:	83 c4 10             	add    $0x10,%esp
  102261:	83 f8 10             	cmp    $0x10,%eax
  102264:	74 0d                	je     102273 <dirlink+0x6a>
  102266:	83 ec 0c             	sub    $0xc,%esp
  102269:	68 21 8f 10 00       	push   $0x108f21
  10226e:	e8 05 e3 ff ff       	call   100578 <panic>
  102273:	0f b7 45 e0          	movzwl -0x20(%ebp),%eax
  102277:	66 85 c0             	test   %ax,%ax
  10227a:	74 18                	je     102294 <dirlink+0x8b>
  10227c:	8b 45 f4             	mov    -0xc(%ebp),%eax
  10227f:	83 c0 10             	add    $0x10,%eax
  102282:	89 45 f4             	mov    %eax,-0xc(%ebp)
  102285:	8b 45 08             	mov    0x8(%ebp),%eax
  102288:	8b 50 18             	mov    0x18(%eax),%edx
  10228b:	8b 45 f4             	mov    -0xc(%ebp),%eax
  10228e:	39 c2                	cmp    %eax,%edx
  102290:	77 ba                	ja     10224c <dirlink+0x43>
  102292:	eb 01                	jmp    102295 <dirlink+0x8c>
  102294:	90                   	nop
  102295:	83 ec 04             	sub    $0x4,%esp
  102298:	6a 0e                	push   $0xe
  10229a:	ff 75 0c             	pushl  0xc(%ebp)
  10229d:	8d 45 e0             	lea    -0x20(%ebp),%eax
  1022a0:	83 c0 02             	add    $0x2,%eax
  1022a3:	50                   	push   %eax
  1022a4:	e8 3a 2a 00 00       	call   104ce3 <strncpy>
  1022a9:	83 c4 10             	add    $0x10,%esp
  1022ac:	8b 45 10             	mov    0x10(%ebp),%eax
  1022af:	66 89 45 e0          	mov    %ax,-0x20(%ebp)
  1022b3:	8b 45 f4             	mov    -0xc(%ebp),%eax
  1022b6:	6a 10                	push   $0x10
  1022b8:	50                   	push   %eax
  1022b9:	8d 45 e0             	lea    -0x20(%ebp),%eax
  1022bc:	50                   	push   %eax
  1022bd:	ff 75 08             	pushl  0x8(%ebp)
  1022c0:	e8 84 fc ff ff       	call   101f49 <writei>
  1022c5:	83 c4 10             	add    $0x10,%esp
  1022c8:	83 f8 10             	cmp    $0x10,%eax
  1022cb:	74 0d                	je     1022da <dirlink+0xd1>
  1022cd:	83 ec 0c             	sub    $0xc,%esp
  1022d0:	68 2e 8f 10 00       	push   $0x108f2e
  1022d5:	e8 9e e2 ff ff       	call   100578 <panic>
  1022da:	b8 00 00 00 00       	mov    $0x0,%eax
  1022df:	c9                   	leave  
  1022e0:	c3                   	ret    

001022e1 <skipelem>:
  1022e1:	55                   	push   %ebp
  1022e2:	89 e5                	mov    %esp,%ebp
  1022e4:	83 ec 18             	sub    $0x18,%esp
  1022e7:	eb 04                	jmp    1022ed <skipelem+0xc>
  1022e9:	83 45 08 01          	addl   $0x1,0x8(%ebp)
  1022ed:	8b 45 08             	mov    0x8(%ebp),%eax
  1022f0:	0f b6 00             	movzbl (%eax),%eax
  1022f3:	3c 2f                	cmp    $0x2f,%al
  1022f5:	74 f2                	je     1022e9 <skipelem+0x8>
  1022f7:	8b 45 08             	mov    0x8(%ebp),%eax
  1022fa:	0f b6 00             	movzbl (%eax),%eax
  1022fd:	84 c0                	test   %al,%al
  1022ff:	75 07                	jne    102308 <skipelem+0x27>
  102301:	b8 00 00 00 00       	mov    $0x0,%eax
  102306:	eb 7b                	jmp    102383 <skipelem+0xa2>
  102308:	8b 45 08             	mov    0x8(%ebp),%eax
  10230b:	89 45 f4             	mov    %eax,-0xc(%ebp)
  10230e:	eb 04                	jmp    102314 <skipelem+0x33>
  102310:	83 45 08 01          	addl   $0x1,0x8(%ebp)
  102314:	8b 45 08             	mov    0x8(%ebp),%eax
  102317:	0f b6 00             	movzbl (%eax),%eax
  10231a:	3c 2f                	cmp    $0x2f,%al
  10231c:	74 0a                	je     102328 <skipelem+0x47>
  10231e:	8b 45 08             	mov    0x8(%ebp),%eax
  102321:	0f b6 00             	movzbl (%eax),%eax
  102324:	84 c0                	test   %al,%al
  102326:	75 e8                	jne    102310 <skipelem+0x2f>
  102328:	8b 55 08             	mov    0x8(%ebp),%edx
  10232b:	8b 45 f4             	mov    -0xc(%ebp),%eax
  10232e:	29 c2                	sub    %eax,%edx
  102330:	89 d0                	mov    %edx,%eax
  102332:	89 45 f0             	mov    %eax,-0x10(%ebp)
  102335:	83 7d f0 0d          	cmpl   $0xd,-0x10(%ebp)
  102339:	7e 15                	jle    102350 <skipelem+0x6f>
  10233b:	83 ec 04             	sub    $0x4,%esp
  10233e:	6a 0e                	push   $0xe
  102340:	ff 75 f4             	pushl  -0xc(%ebp)
  102343:	ff 75 0c             	pushl  0xc(%ebp)
  102346:	e8 ac 28 00 00       	call   104bf7 <memmove>
  10234b:	83 c4 10             	add    $0x10,%esp
  10234e:	eb 26                	jmp    102376 <skipelem+0x95>
  102350:	8b 45 f0             	mov    -0x10(%ebp),%eax
  102353:	83 ec 04             	sub    $0x4,%esp
  102356:	50                   	push   %eax
  102357:	ff 75 f4             	pushl  -0xc(%ebp)
  10235a:	ff 75 0c             	pushl  0xc(%ebp)
  10235d:	e8 95 28 00 00       	call   104bf7 <memmove>
  102362:	83 c4 10             	add    $0x10,%esp
  102365:	8b 55 f0             	mov    -0x10(%ebp),%edx
  102368:	8b 45 0c             	mov    0xc(%ebp),%eax
  10236b:	01 d0                	add    %edx,%eax
  10236d:	c6 00 00             	movb   $0x0,(%eax)
  102370:	eb 04                	jmp    102376 <skipelem+0x95>
  102372:	83 45 08 01          	addl   $0x1,0x8(%ebp)
  102376:	8b 45 08             	mov    0x8(%ebp),%eax
  102379:	0f b6 00             	movzbl (%eax),%eax
  10237c:	3c 2f                	cmp    $0x2f,%al
  10237e:	74 f2                	je     102372 <skipelem+0x91>
  102380:	8b 45 08             	mov    0x8(%ebp),%eax
  102383:	c9                   	leave  
  102384:	c3                   	ret    

00102385 <namex>:
  102385:	55                   	push   %ebp
  102386:	89 e5                	mov    %esp,%ebp
  102388:	83 ec 18             	sub    $0x18,%esp
  10238b:	8b 45 08             	mov    0x8(%ebp),%eax
  10238e:	0f b6 00             	movzbl (%eax),%eax
  102391:	3c 2f                	cmp    $0x2f,%al
  102393:	75 17                	jne    1023ac <namex+0x27>
  102395:	83 ec 08             	sub    $0x8,%esp
  102398:	6a 01                	push   $0x1
  10239a:	6a 01                	push   $0x1
  10239c:	e8 bb f3 ff ff       	call   10175c <iget>
  1023a1:	83 c4 10             	add    $0x10,%esp
  1023a4:	89 45 f4             	mov    %eax,-0xc(%ebp)
  1023a7:	e9 0e 01 00 00       	jmp    1024ba <namex+0x135>
  1023ac:	65 a1 04 00 00 00    	mov    %gs:0x4,%eax
  1023b2:	8b 40 68             	mov    0x68(%eax),%eax
  1023b5:	83 ec 0c             	sub    $0xc,%esp
  1023b8:	50                   	push   %eax
  1023b9:	e8 7d f4 ff ff       	call   10183b <idup>
  1023be:	83 c4 10             	add    $0x10,%esp
  1023c1:	89 45 f4             	mov    %eax,-0xc(%ebp)
  1023c4:	e9 f1 00 00 00       	jmp    1024ba <namex+0x135>
  1023c9:	8b 45 f4             	mov    -0xc(%ebp),%eax
  1023cc:	8b 00                	mov    (%eax),%eax
  1023ce:	83 f8 01             	cmp    $0x1,%eax
  1023d1:	75 49                	jne    10241c <namex+0x97>
  1023d3:	8b 45 f4             	mov    -0xc(%ebp),%eax
  1023d6:	8b 40 04             	mov    0x4(%eax),%eax
  1023d9:	83 f8 01             	cmp    $0x1,%eax
  1023dc:	75 3e                	jne    10241c <namex+0x97>
  1023de:	83 ec 04             	sub    $0x4,%esp
  1023e1:	6a 01                	push   $0x1
  1023e3:	68 36 8f 10 00       	push   $0x108f36
  1023e8:	ff 75 10             	pushl  0x10(%ebp)
  1023eb:	e8 9d 28 00 00       	call   104c8d <strncmp>
  1023f0:	83 c4 10             	add    $0x10,%esp
  1023f3:	85 c0                	test   %eax,%eax
  1023f5:	75 25                	jne    10241c <namex+0x97>
  1023f7:	83 ec 0c             	sub    $0xc,%esp
  1023fa:	ff 75 f4             	pushl  -0xc(%ebp)
  1023fd:	e8 57 f6 ff ff       	call   101a59 <iput>
  102402:	83 c4 10             	add    $0x10,%esp
  102405:	83 ec 08             	sub    $0x8,%esp
  102408:	6a 01                	push   $0x1
  10240a:	6a 02                	push   $0x2
  10240c:	e8 4b f3 ff ff       	call   10175c <iget>
  102411:	83 c4 10             	add    $0x10,%esp
  102414:	89 45 f4             	mov    %eax,-0xc(%ebp)
  102417:	e9 9e 00 00 00       	jmp    1024ba <namex+0x135>
  10241c:	83 ec 0c             	sub    $0xc,%esp
  10241f:	ff 75 f4             	pushl  -0xc(%ebp)
  102422:	e8 4e f4 ff ff       	call   101875 <ilock>
  102427:	83 c4 10             	add    $0x10,%esp
  10242a:	8b 45 f4             	mov    -0xc(%ebp),%eax
  10242d:	0f b7 40 10          	movzwl 0x10(%eax),%eax
  102431:	66 83 f8 01          	cmp    $0x1,%ax
  102435:	74 18                	je     10244f <namex+0xca>
  102437:	83 ec 0c             	sub    $0xc,%esp
  10243a:	ff 75 f4             	pushl  -0xc(%ebp)
  10243d:	e8 07 f7 ff ff       	call   101b49 <iunlockput>
  102442:	83 c4 10             	add    $0x10,%esp
  102445:	b8 00 00 00 00       	mov    $0x0,%eax
  10244a:	e9 a7 00 00 00       	jmp    1024f6 <namex+0x171>
  10244f:	83 7d 0c 00          	cmpl   $0x0,0xc(%ebp)
  102453:	74 20                	je     102475 <namex+0xf0>
  102455:	8b 45 08             	mov    0x8(%ebp),%eax
  102458:	0f b6 00             	movzbl (%eax),%eax
  10245b:	84 c0                	test   %al,%al
  10245d:	75 16                	jne    102475 <namex+0xf0>
  10245f:	83 ec 0c             	sub    $0xc,%esp
  102462:	ff 75 f4             	pushl  -0xc(%ebp)
  102465:	e8 7d f5 ff ff       	call   1019e7 <iunlock>
  10246a:	83 c4 10             	add    $0x10,%esp
  10246d:	8b 45 f4             	mov    -0xc(%ebp),%eax
  102470:	e9 81 00 00 00       	jmp    1024f6 <namex+0x171>
  102475:	83 ec 04             	sub    $0x4,%esp
  102478:	6a 00                	push   $0x0
  10247a:	ff 75 10             	pushl  0x10(%ebp)
  10247d:	ff 75 f4             	pushl  -0xc(%ebp)
  102480:	e8 68 fc ff ff       	call   1020ed <dirlookup>
  102485:	83 c4 10             	add    $0x10,%esp
  102488:	89 45 f0             	mov    %eax,-0x10(%ebp)
  10248b:	83 7d f0 00          	cmpl   $0x0,-0x10(%ebp)
  10248f:	75 15                	jne    1024a6 <namex+0x121>
  102491:	83 ec 0c             	sub    $0xc,%esp
  102494:	ff 75 f4             	pushl  -0xc(%ebp)
  102497:	e8 ad f6 ff ff       	call   101b49 <iunlockput>
  10249c:	83 c4 10             	add    $0x10,%esp
  10249f:	b8 00 00 00 00       	mov    $0x0,%eax
  1024a4:	eb 50                	jmp    1024f6 <namex+0x171>
  1024a6:	83 ec 0c             	sub    $0xc,%esp
  1024a9:	ff 75 f4             	pushl  -0xc(%ebp)
  1024ac:	e8 98 f6 ff ff       	call   101b49 <iunlockput>
  1024b1:	83 c4 10             	add    $0x10,%esp
  1024b4:	8b 45 f0             	mov    -0x10(%ebp),%eax
  1024b7:	89 45 f4             	mov    %eax,-0xc(%ebp)
  1024ba:	83 ec 08             	sub    $0x8,%esp
  1024bd:	ff 75 10             	pushl  0x10(%ebp)
  1024c0:	ff 75 08             	pushl  0x8(%ebp)
  1024c3:	e8 19 fe ff ff       	call   1022e1 <skipelem>
  1024c8:	83 c4 10             	add    $0x10,%esp
  1024cb:	89 45 08             	mov    %eax,0x8(%ebp)
  1024ce:	83 7d 08 00          	cmpl   $0x0,0x8(%ebp)
  1024d2:	0f 85 f1 fe ff ff    	jne    1023c9 <namex+0x44>
  1024d8:	83 7d 0c 00          	cmpl   $0x0,0xc(%ebp)
  1024dc:	74 15                	je     1024f3 <namex+0x16e>
  1024de:	83 ec 0c             	sub    $0xc,%esp
  1024e1:	ff 75 f4             	pushl  -0xc(%ebp)
  1024e4:	e8 70 f5 ff ff       	call   101a59 <iput>
  1024e9:	83 c4 10             	add    $0x10,%esp
  1024ec:	b8 00 00 00 00       	mov    $0x0,%eax
  1024f1:	eb 03                	jmp    1024f6 <namex+0x171>
  1024f3:	8b 45 f4             	mov    -0xc(%ebp),%eax
  1024f6:	c9                   	leave  
  1024f7:	c3                   	ret    

001024f8 <namei>:
  1024f8:	55                   	push   %ebp
  1024f9:	89 e5                	mov    %esp,%ebp
  1024fb:	83 ec 18             	sub    $0x18,%esp
  1024fe:	83 ec 04             	sub    $0x4,%esp
  102501:	8d 45 ea             	lea    -0x16(%ebp),%eax
  102504:	50                   	push   %eax
  102505:	6a 00                	push   $0x0
  102507:	ff 75 08             	pushl  0x8(%ebp)
  10250a:	e8 76 fe ff ff       	call   102385 <namex>
  10250f:	83 c4 10             	add    $0x10,%esp
  102512:	c9                   	leave  
  102513:	c3                   	ret    

00102514 <nameiparent>:
  102514:	55                   	push   %ebp
  102515:	89 e5                	mov    %esp,%ebp
  102517:	83 ec 08             	sub    $0x8,%esp
  10251a:	83 ec 04             	sub    $0x4,%esp
  10251d:	ff 75 0c             	pushl  0xc(%ebp)
  102520:	6a 01                	push   $0x1
  102522:	ff 75 08             	pushl  0x8(%ebp)
  102525:	e8 5b fe ff ff       	call   102385 <namex>
  10252a:	83 c4 10             	add    $0x10,%esp
  10252d:	c9                   	leave  
  10252e:	c3                   	ret    

0010252f <inb>:
  10252f:	55                   	push   %ebp
  102530:	89 e5                	mov    %esp,%ebp
  102532:	83 ec 14             	sub    $0x14,%esp
  102535:	8b 45 08             	mov    0x8(%ebp),%eax
  102538:	66 89 45 ec          	mov    %ax,-0x14(%ebp)
  10253c:	0f b7 45 ec          	movzwl -0x14(%ebp),%eax
  102540:	89 c2                	mov    %eax,%edx
  102542:	ec                   	in     (%dx),%al
  102543:	88 45 ff             	mov    %al,-0x1(%ebp)
  102546:	0f b6 45 ff          	movzbl -0x1(%ebp),%eax
  10254a:	c9                   	leave  
  10254b:	c3                   	ret    

0010254c <insl>:
  10254c:	55                   	push   %ebp
  10254d:	89 e5                	mov    %esp,%ebp
  10254f:	57                   	push   %edi
  102550:	53                   	push   %ebx
  102551:	8b 55 08             	mov    0x8(%ebp),%edx
  102554:	8b 4d 0c             	mov    0xc(%ebp),%ecx
  102557:	8b 45 10             	mov    0x10(%ebp),%eax
  10255a:	89 cb                	mov    %ecx,%ebx
  10255c:	89 df                	mov    %ebx,%edi
  10255e:	89 c1                	mov    %eax,%ecx
  102560:	fc                   	cld    
  102561:	f3 6d                	rep insl (%dx),%es:(%edi)
  102563:	89 c8                	mov    %ecx,%eax
  102565:	89 fb                	mov    %edi,%ebx
  102567:	89 5d 0c             	mov    %ebx,0xc(%ebp)
  10256a:	89 45 10             	mov    %eax,0x10(%ebp)
  10256d:	90                   	nop
  10256e:	5b                   	pop    %ebx
  10256f:	5f                   	pop    %edi
  102570:	5d                   	pop    %ebp
  102571:	c3                   	ret    

00102572 <outb>:
  102572:	55                   	push   %ebp
  102573:	89 e5                	mov    %esp,%ebp
  102575:	83 ec 08             	sub    $0x8,%esp
  102578:	8b 55 08             	mov    0x8(%ebp),%edx
  10257b:	8b 45 0c             	mov    0xc(%ebp),%eax
  10257e:	66 89 55 fc          	mov    %dx,-0x4(%ebp)
  102582:	88 45 f8             	mov    %al,-0x8(%ebp)
  102585:	0f b6 45 f8          	movzbl -0x8(%ebp),%eax
  102589:	0f b7 55 fc          	movzwl -0x4(%ebp),%edx
  10258d:	ee                   	out    %al,(%dx)
  10258e:	90                   	nop
  10258f:	c9                   	leave  
  102590:	c3                   	ret    

00102591 <outsl>:
  102591:	55                   	push   %ebp
  102592:	89 e5                	mov    %esp,%ebp
  102594:	56                   	push   %esi
  102595:	53                   	push   %ebx
  102596:	8b 55 08             	mov    0x8(%ebp),%edx
  102599:	8b 4d 0c             	mov    0xc(%ebp),%ecx
  10259c:	8b 45 10             	mov    0x10(%ebp),%eax
  10259f:	89 cb                	mov    %ecx,%ebx
  1025a1:	89 de                	mov    %ebx,%esi
  1025a3:	89 c1                	mov    %eax,%ecx
  1025a5:	fc                   	cld    
  1025a6:	f3 6f                	rep outsl %ds:(%esi),(%dx)
  1025a8:	89 c8                	mov    %ecx,%eax
  1025aa:	89 f3                	mov    %esi,%ebx
  1025ac:	89 5d 0c             	mov    %ebx,0xc(%ebp)
  1025af:	89 45 10             	mov    %eax,0x10(%ebp)
  1025b2:	90                   	nop
  1025b3:	5b                   	pop    %ebx
  1025b4:	5e                   	pop    %esi
  1025b5:	5d                   	pop    %ebp
  1025b6:	c3                   	ret    

001025b7 <ide_control_port>:
  1025b7:	55                   	push   %ebp
  1025b8:	89 e5                	mov    %esp,%ebp
  1025ba:	83 7d 08 01          	cmpl   $0x1,0x8(%ebp)
  1025be:	77 07                	ja     1025c7 <ide_control_port+0x10>
  1025c0:	b8 f6 03 00 00       	mov    $0x3f6,%eax
  1025c5:	eb 05                	jmp    1025cc <ide_control_port+0x15>
  1025c7:	b8 76 03 00 00       	mov    $0x376,%eax
  1025cc:	5d                   	pop    %ebp
  1025cd:	c3                   	ret    

001025ce <ide_base_port>:
  1025ce:	55                   	push   %ebp
  1025cf:	89 e5                	mov    %esp,%ebp
  1025d1:	83 7d 08 01          	cmpl   $0x1,0x8(%ebp)
  1025d5:	77 07                	ja     1025de <ide_base_port+0x10>
  1025d7:	b8 f0 01 00 00       	mov    $0x1f0,%eax
  1025dc:	eb 05                	jmp    1025e3 <ide_base_port+0x15>
  1025de:	b8 70 01 00 00       	mov    $0x170,%eax
  1025e3:	5d                   	pop    %ebp
  1025e4:	c3                   	ret    

001025e5 <idewait>:
  1025e5:	55                   	push   %ebp
  1025e6:	89 e5                	mov    %esp,%ebp
  1025e8:	83 ec 10             	sub    $0x10,%esp
  1025eb:	ff 75 08             	pushl  0x8(%ebp)
  1025ee:	e8 db ff ff ff       	call   1025ce <ide_base_port>
  1025f3:	83 c4 04             	add    $0x4,%esp
  1025f6:	83 c0 07             	add    $0x7,%eax
  1025f9:	66 89 45 fe          	mov    %ax,-0x2(%ebp)
  1025fd:	90                   	nop
  1025fe:	0f b7 45 fe          	movzwl -0x2(%ebp),%eax
  102602:	50                   	push   %eax
  102603:	e8 27 ff ff ff       	call   10252f <inb>
  102608:	83 c4 04             	add    $0x4,%esp
  10260b:	0f b6 c0             	movzbl %al,%eax
  10260e:	89 45 f8             	mov    %eax,-0x8(%ebp)
  102611:	8b 45 f8             	mov    -0x8(%ebp),%eax
  102614:	25 c0 00 00 00       	and    $0xc0,%eax
  102619:	83 f8 40             	cmp    $0x40,%eax
  10261c:	75 e0                	jne    1025fe <idewait+0x19>
  10261e:	83 7d 0c 00          	cmpl   $0x0,0xc(%ebp)
  102622:	74 11                	je     102635 <idewait+0x50>
  102624:	8b 45 f8             	mov    -0x8(%ebp),%eax
  102627:	83 e0 21             	and    $0x21,%eax
  10262a:	85 c0                	test   %eax,%eax
  10262c:	74 07                	je     102635 <idewait+0x50>
  10262e:	b8 ff ff ff ff       	mov    $0xffffffff,%eax
  102633:	eb 05                	jmp    10263a <idewait+0x55>
  102635:	b8 00 00 00 00       	mov    $0x0,%eax
  10263a:	c9                   	leave  
  10263b:	c3                   	ret    

0010263c <ideinit>:
  10263c:	55                   	push   %ebp
  10263d:	89 e5                	mov    %esp,%ebp
  10263f:	83 ec 18             	sub    $0x18,%esp
  102642:	83 ec 08             	sub    $0x8,%esp
  102645:	68 38 8f 10 00       	push   $0x108f38
  10264a:	68 20 cb 10 00       	push   $0x10cb20
  10264f:	e8 d2 22 00 00       	call   104926 <initlock>
  102654:	83 c4 10             	add    $0x10,%esp
  102657:	83 ec 0c             	sub    $0xc,%esp
  10265a:	6a 0e                	push   $0xe
  10265c:	e8 2f 12 00 00       	call   103890 <picenable>
  102661:	83 c4 10             	add    $0x10,%esp
  102664:	83 ec 0c             	sub    $0xc,%esp
  102667:	6a 0f                	push   $0xf
  102669:	e8 22 12 00 00       	call   103890 <picenable>
  10266e:	83 c4 10             	add    $0x10,%esp
  102671:	a1 a0 13 11 00       	mov    0x1113a0,%eax
  102676:	83 e8 01             	sub    $0x1,%eax
  102679:	83 ec 08             	sub    $0x8,%esp
  10267c:	50                   	push   %eax
  10267d:	6a 0e                	push   $0xe
  10267f:	e8 45 05 00 00       	call   102bc9 <ioapicenable>
  102684:	83 c4 10             	add    $0x10,%esp
  102687:	a1 a0 13 11 00       	mov    0x1113a0,%eax
  10268c:	83 e8 01             	sub    $0x1,%eax
  10268f:	83 ec 08             	sub    $0x8,%esp
  102692:	50                   	push   %eax
  102693:	6a 0f                	push   $0xf
  102695:	e8 2f 05 00 00       	call   102bc9 <ioapicenable>
  10269a:	83 c4 10             	add    $0x10,%esp
  10269d:	83 ec 08             	sub    $0x8,%esp
  1026a0:	6a 00                	push   $0x0
  1026a2:	6a 00                	push   $0x0
  1026a4:	e8 3c ff ff ff       	call   1025e5 <idewait>
  1026a9:	83 c4 10             	add    $0x10,%esp
  1026ac:	83 ec 08             	sub    $0x8,%esp
  1026af:	68 f0 00 00 00       	push   $0xf0
  1026b4:	68 f6 01 00 00       	push   $0x1f6
  1026b9:	e8 b4 fe ff ff       	call   102572 <outb>
  1026be:	83 c4 10             	add    $0x10,%esp
  1026c1:	c7 45 f4 00 00 00 00 	movl   $0x0,-0xc(%ebp)
  1026c8:	eb 24                	jmp    1026ee <ideinit+0xb2>
  1026ca:	83 ec 0c             	sub    $0xc,%esp
  1026cd:	68 f7 01 00 00       	push   $0x1f7
  1026d2:	e8 58 fe ff ff       	call   10252f <inb>
  1026d7:	83 c4 10             	add    $0x10,%esp
  1026da:	84 c0                	test   %al,%al
  1026dc:	74 0c                	je     1026ea <ideinit+0xae>
  1026de:	c7 05 58 cb 10 00 01 	movl   $0x1,0x10cb58
  1026e5:	00 00 00 
  1026e8:	eb 0d                	jmp    1026f7 <ideinit+0xbb>
  1026ea:	83 45 f4 01          	addl   $0x1,-0xc(%ebp)
  1026ee:	81 7d f4 e7 03 00 00 	cmpl   $0x3e7,-0xc(%ebp)
  1026f5:	7e d3                	jle    1026ca <ideinit+0x8e>
  1026f7:	83 ec 08             	sub    $0x8,%esp
  1026fa:	68 e0 00 00 00       	push   $0xe0
  1026ff:	68 f6 01 00 00       	push   $0x1f6
  102704:	e8 69 fe ff ff       	call   102572 <outb>
  102709:	83 c4 10             	add    $0x10,%esp
  10270c:	83 ec 08             	sub    $0x8,%esp
  10270f:	68 e0 00 00 00       	push   $0xe0
  102714:	68 76 01 00 00       	push   $0x176
  102719:	e8 54 fe ff ff       	call   102572 <outb>
  10271e:	83 c4 10             	add    $0x10,%esp
  102721:	c7 45 f4 00 00 00 00 	movl   $0x0,-0xc(%ebp)
  102728:	eb 34                	jmp    10275e <ideinit+0x122>
  10272a:	83 ec 0c             	sub    $0xc,%esp
  10272d:	68 77 01 00 00       	push   $0x177
  102732:	e8 f8 fd ff ff       	call   10252f <inb>
  102737:	83 c4 10             	add    $0x10,%esp
  10273a:	84 c0                	test   %al,%al
  10273c:	74 1c                	je     10275a <ideinit+0x11e>
  10273e:	c7 05 5c cb 10 00 01 	movl   $0x1,0x10cb5c
  102745:	00 00 00 
  102748:	83 ec 0c             	sub    $0xc,%esp
  10274b:	68 3c 8f 10 00       	push   $0x108f3c
  102750:	e8 97 dc ff ff       	call   1003ec <cprintf>
  102755:	83 c4 10             	add    $0x10,%esp
  102758:	eb 0d                	jmp    102767 <ideinit+0x12b>
  10275a:	83 45 f4 01          	addl   $0x1,-0xc(%ebp)
  10275e:	81 7d f4 e7 03 00 00 	cmpl   $0x3e7,-0xc(%ebp)
  102765:	7e c3                	jle    10272a <ideinit+0xee>
  102767:	90                   	nop
  102768:	c9                   	leave  
  102769:	c3                   	ret    

0010276a <idestart>:
  10276a:	55                   	push   %ebp
  10276b:	89 e5                	mov    %esp,%ebp
  10276d:	83 ec 18             	sub    $0x18,%esp
  102770:	83 7d 08 00          	cmpl   $0x0,0x8(%ebp)
  102774:	75 0d                	jne    102783 <idestart+0x19>
  102776:	83 ec 0c             	sub    $0xc,%esp
  102779:	68 4a 8f 10 00       	push   $0x108f4a
  10277e:	e8 f5 dd ff ff       	call   100578 <panic>
  102783:	8b 45 08             	mov    0x8(%ebp),%eax
  102786:	8b 40 04             	mov    0x4(%eax),%eax
  102789:	83 ec 0c             	sub    $0xc,%esp
  10278c:	50                   	push   %eax
  10278d:	e8 25 fe ff ff       	call   1025b7 <ide_control_port>
  102792:	83 c4 10             	add    $0x10,%esp
  102795:	66 89 45 f6          	mov    %ax,-0xa(%ebp)
  102799:	8b 45 08             	mov    0x8(%ebp),%eax
  10279c:	8b 40 04             	mov    0x4(%eax),%eax
  10279f:	83 ec 0c             	sub    $0xc,%esp
  1027a2:	50                   	push   %eax
  1027a3:	e8 26 fe ff ff       	call   1025ce <ide_base_port>
  1027a8:	83 c4 10             	add    $0x10,%esp
  1027ab:	66 89 45 f4          	mov    %ax,-0xc(%ebp)
  1027af:	8b 45 08             	mov    0x8(%ebp),%eax
  1027b2:	8b 40 04             	mov    0x4(%eax),%eax
  1027b5:	83 ec 08             	sub    $0x8,%esp
  1027b8:	6a 00                	push   $0x0
  1027ba:	50                   	push   %eax
  1027bb:	e8 25 fe ff ff       	call   1025e5 <idewait>
  1027c0:	83 c4 10             	add    $0x10,%esp
  1027c3:	0f b7 45 f6          	movzwl -0xa(%ebp),%eax
  1027c7:	83 ec 08             	sub    $0x8,%esp
  1027ca:	6a 00                	push   $0x0
  1027cc:	50                   	push   %eax
  1027cd:	e8 a0 fd ff ff       	call   102572 <outb>
  1027d2:	83 c4 10             	add    $0x10,%esp
  1027d5:	0f b7 45 f4          	movzwl -0xc(%ebp),%eax
  1027d9:	83 c0 02             	add    $0x2,%eax
  1027dc:	0f b7 c0             	movzwl %ax,%eax
  1027df:	83 ec 08             	sub    $0x8,%esp
  1027e2:	6a 01                	push   $0x1
  1027e4:	50                   	push   %eax
  1027e5:	e8 88 fd ff ff       	call   102572 <outb>
  1027ea:	83 c4 10             	add    $0x10,%esp
  1027ed:	8b 45 08             	mov    0x8(%ebp),%eax
  1027f0:	8b 40 08             	mov    0x8(%eax),%eax
  1027f3:	0f b6 d0             	movzbl %al,%edx
  1027f6:	0f b7 45 f4          	movzwl -0xc(%ebp),%eax
  1027fa:	83 c0 03             	add    $0x3,%eax
  1027fd:	0f b7 c0             	movzwl %ax,%eax
  102800:	83 ec 08             	sub    $0x8,%esp
  102803:	52                   	push   %edx
  102804:	50                   	push   %eax
  102805:	e8 68 fd ff ff       	call   102572 <outb>
  10280a:	83 c4 10             	add    $0x10,%esp
  10280d:	8b 45 08             	mov    0x8(%ebp),%eax
  102810:	8b 40 08             	mov    0x8(%eax),%eax
  102813:	c1 e8 08             	shr    $0x8,%eax
  102816:	0f b6 d0             	movzbl %al,%edx
  102819:	0f b7 45 f4          	movzwl -0xc(%ebp),%eax
  10281d:	83 c0 04             	add    $0x4,%eax
  102820:	0f b7 c0             	movzwl %ax,%eax
  102823:	83 ec 08             	sub    $0x8,%esp
  102826:	52                   	push   %edx
  102827:	50                   	push   %eax
  102828:	e8 45 fd ff ff       	call   102572 <outb>
  10282d:	83 c4 10             	add    $0x10,%esp
  102830:	8b 45 08             	mov    0x8(%ebp),%eax
  102833:	8b 40 08             	mov    0x8(%eax),%eax
  102836:	c1 e8 10             	shr    $0x10,%eax
  102839:	0f b6 d0             	movzbl %al,%edx
  10283c:	0f b7 45 f4          	movzwl -0xc(%ebp),%eax
  102840:	83 c0 05             	add    $0x5,%eax
  102843:	0f b7 c0             	movzwl %ax,%eax
  102846:	83 ec 08             	sub    $0x8,%esp
  102849:	52                   	push   %edx
  10284a:	50                   	push   %eax
  10284b:	e8 22 fd ff ff       	call   102572 <outb>
  102850:	83 c4 10             	add    $0x10,%esp
  102853:	8b 45 08             	mov    0x8(%ebp),%eax
  102856:	8b 40 04             	mov    0x4(%eax),%eax
  102859:	c1 e0 04             	shl    $0x4,%eax
  10285c:	83 e0 10             	and    $0x10,%eax
  10285f:	89 c2                	mov    %eax,%edx
  102861:	8b 45 08             	mov    0x8(%ebp),%eax
  102864:	8b 40 08             	mov    0x8(%eax),%eax
  102867:	c1 e8 18             	shr    $0x18,%eax
  10286a:	83 e0 0f             	and    $0xf,%eax
  10286d:	09 d0                	or     %edx,%eax
  10286f:	83 c8 e0             	or     $0xffffffe0,%eax
  102872:	0f b6 d0             	movzbl %al,%edx
  102875:	0f b7 45 f4          	movzwl -0xc(%ebp),%eax
  102879:	83 c0 06             	add    $0x6,%eax
  10287c:	0f b7 c0             	movzwl %ax,%eax
  10287f:	83 ec 08             	sub    $0x8,%esp
  102882:	52                   	push   %edx
  102883:	50                   	push   %eax
  102884:	e8 e9 fc ff ff       	call   102572 <outb>
  102889:	83 c4 10             	add    $0x10,%esp
  10288c:	8b 45 08             	mov    0x8(%ebp),%eax
  10288f:	8b 00                	mov    (%eax),%eax
  102891:	83 e0 04             	and    $0x4,%eax
  102894:	85 c0                	test   %eax,%eax
  102896:	74 36                	je     1028ce <idestart+0x164>
  102898:	0f b7 45 f4          	movzwl -0xc(%ebp),%eax
  10289c:	83 c0 07             	add    $0x7,%eax
  10289f:	0f b7 c0             	movzwl %ax,%eax
  1028a2:	83 ec 08             	sub    $0x8,%esp
  1028a5:	6a 30                	push   $0x30
  1028a7:	50                   	push   %eax
  1028a8:	e8 c5 fc ff ff       	call   102572 <outb>
  1028ad:	83 c4 10             	add    $0x10,%esp
  1028b0:	8b 45 08             	mov    0x8(%ebp),%eax
  1028b3:	8d 50 18             	lea    0x18(%eax),%edx
  1028b6:	0f b7 45 f4          	movzwl -0xc(%ebp),%eax
  1028ba:	83 ec 04             	sub    $0x4,%esp
  1028bd:	68 80 00 00 00       	push   $0x80
  1028c2:	52                   	push   %edx
  1028c3:	50                   	push   %eax
  1028c4:	e8 c8 fc ff ff       	call   102591 <outsl>
  1028c9:	83 c4 10             	add    $0x10,%esp
  1028cc:	eb 18                	jmp    1028e6 <idestart+0x17c>
  1028ce:	0f b7 45 f4          	movzwl -0xc(%ebp),%eax
  1028d2:	83 c0 07             	add    $0x7,%eax
  1028d5:	0f b7 c0             	movzwl %ax,%eax
  1028d8:	83 ec 08             	sub    $0x8,%esp
  1028db:	6a 20                	push   $0x20
  1028dd:	50                   	push   %eax
  1028de:	e8 8f fc ff ff       	call   102572 <outb>
  1028e3:	83 c4 10             	add    $0x10,%esp
  1028e6:	90                   	nop
  1028e7:	c9                   	leave  
  1028e8:	c3                   	ret    

001028e9 <ideintr>:
  1028e9:	55                   	push   %ebp
  1028ea:	89 e5                	mov    %esp,%ebp
  1028ec:	53                   	push   %ebx
  1028ed:	83 ec 14             	sub    $0x14,%esp
  1028f0:	83 ec 0c             	sub    $0xc,%esp
  1028f3:	68 20 cb 10 00       	push   $0x10cb20
  1028f8:	e8 4b 20 00 00       	call   104948 <acquire>
  1028fd:	83 c4 10             	add    $0x10,%esp
  102900:	a1 54 cb 10 00       	mov    0x10cb54,%eax
  102905:	89 45 f4             	mov    %eax,-0xc(%ebp)
  102908:	83 7d f4 00          	cmpl   $0x0,-0xc(%ebp)
  10290c:	75 15                	jne    102923 <ideintr+0x3a>
  10290e:	83 ec 0c             	sub    $0xc,%esp
  102911:	68 20 cb 10 00       	push   $0x10cb20
  102916:	e8 94 20 00 00       	call   1049af <release>
  10291b:	83 c4 10             	add    $0x10,%esp
  10291e:	e9 b2 00 00 00       	jmp    1029d5 <ideintr+0xec>
  102923:	8b 45 f4             	mov    -0xc(%ebp),%eax
  102926:	8b 40 14             	mov    0x14(%eax),%eax
  102929:	a3 54 cb 10 00       	mov    %eax,0x10cb54
  10292e:	8b 45 f4             	mov    -0xc(%ebp),%eax
  102931:	8b 00                	mov    (%eax),%eax
  102933:	83 e0 04             	and    $0x4,%eax
  102936:	85 c0                	test   %eax,%eax
  102938:	75 45                	jne    10297f <ideintr+0x96>
  10293a:	8b 45 f4             	mov    -0xc(%ebp),%eax
  10293d:	8b 40 04             	mov    0x4(%eax),%eax
  102940:	83 ec 08             	sub    $0x8,%esp
  102943:	6a 01                	push   $0x1
  102945:	50                   	push   %eax
  102946:	e8 9a fc ff ff       	call   1025e5 <idewait>
  10294b:	83 c4 10             	add    $0x10,%esp
  10294e:	85 c0                	test   %eax,%eax
  102950:	78 2d                	js     10297f <ideintr+0x96>
  102952:	8b 45 f4             	mov    -0xc(%ebp),%eax
  102955:	8d 58 18             	lea    0x18(%eax),%ebx
  102958:	8b 45 f4             	mov    -0xc(%ebp),%eax
  10295b:	8b 40 04             	mov    0x4(%eax),%eax
  10295e:	83 ec 0c             	sub    $0xc,%esp
  102961:	50                   	push   %eax
  102962:	e8 67 fc ff ff       	call   1025ce <ide_base_port>
  102967:	83 c4 10             	add    $0x10,%esp
  10296a:	0f b7 c0             	movzwl %ax,%eax
  10296d:	83 ec 04             	sub    $0x4,%esp
  102970:	68 80 00 00 00       	push   $0x80
  102975:	53                   	push   %ebx
  102976:	50                   	push   %eax
  102977:	e8 d0 fb ff ff       	call   10254c <insl>
  10297c:	83 c4 10             	add    $0x10,%esp
  10297f:	8b 45 f4             	mov    -0xc(%ebp),%eax
  102982:	8b 00                	mov    (%eax),%eax
  102984:	83 c8 02             	or     $0x2,%eax
  102987:	89 c2                	mov    %eax,%edx
  102989:	8b 45 f4             	mov    -0xc(%ebp),%eax
  10298c:	89 10                	mov    %edx,(%eax)
  10298e:	8b 45 f4             	mov    -0xc(%ebp),%eax
  102991:	8b 00                	mov    (%eax),%eax
  102993:	83 e0 fb             	and    $0xfffffffb,%eax
  102996:	89 c2                	mov    %eax,%edx
  102998:	8b 45 f4             	mov    -0xc(%ebp),%eax
  10299b:	89 10                	mov    %edx,(%eax)
  10299d:	83 ec 0c             	sub    $0xc,%esp
  1029a0:	ff 75 f4             	pushl  -0xc(%ebp)
  1029a3:	e8 92 1d 00 00       	call   10473a <wakeup>
  1029a8:	83 c4 10             	add    $0x10,%esp
  1029ab:	a1 54 cb 10 00       	mov    0x10cb54,%eax
  1029b0:	85 c0                	test   %eax,%eax
  1029b2:	74 11                	je     1029c5 <ideintr+0xdc>
  1029b4:	a1 54 cb 10 00       	mov    0x10cb54,%eax
  1029b9:	83 ec 0c             	sub    $0xc,%esp
  1029bc:	50                   	push   %eax
  1029bd:	e8 a8 fd ff ff       	call   10276a <idestart>
  1029c2:	83 c4 10             	add    $0x10,%esp
  1029c5:	83 ec 0c             	sub    $0xc,%esp
  1029c8:	68 20 cb 10 00       	push   $0x10cb20
  1029cd:	e8 dd 1f 00 00       	call   1049af <release>
  1029d2:	83 c4 10             	add    $0x10,%esp
  1029d5:	8b 5d fc             	mov    -0x4(%ebp),%ebx
  1029d8:	c9                   	leave  
  1029d9:	c3                   	ret    

001029da <iderw>:
  1029da:	55                   	push   %ebp
  1029db:	89 e5                	mov    %esp,%ebp
  1029dd:	83 ec 18             	sub    $0x18,%esp
  1029e0:	8b 45 08             	mov    0x8(%ebp),%eax
  1029e3:	8b 00                	mov    (%eax),%eax
  1029e5:	83 e0 01             	and    $0x1,%eax
  1029e8:	85 c0                	test   %eax,%eax
  1029ea:	75 0d                	jne    1029f9 <iderw+0x1f>
  1029ec:	83 ec 0c             	sub    $0xc,%esp
  1029ef:	68 53 8f 10 00       	push   $0x108f53
  1029f4:	e8 7f db ff ff       	call   100578 <panic>
  1029f9:	8b 45 08             	mov    0x8(%ebp),%eax
  1029fc:	8b 00                	mov    (%eax),%eax
  1029fe:	83 e0 06             	and    $0x6,%eax
  102a01:	83 f8 02             	cmp    $0x2,%eax
  102a04:	75 0d                	jne    102a13 <iderw+0x39>
  102a06:	83 ec 0c             	sub    $0xc,%esp
  102a09:	68 67 8f 10 00       	push   $0x108f67
  102a0e:	e8 65 db ff ff       	call   100578 <panic>
  102a13:	8b 45 08             	mov    0x8(%ebp),%eax
  102a16:	8b 40 04             	mov    0x4(%eax),%eax
  102a19:	83 f8 01             	cmp    $0x1,%eax
  102a1c:	75 16                	jne    102a34 <iderw+0x5a>
  102a1e:	a1 58 cb 10 00       	mov    0x10cb58,%eax
  102a23:	85 c0                	test   %eax,%eax
  102a25:	75 0d                	jne    102a34 <iderw+0x5a>
  102a27:	83 ec 0c             	sub    $0xc,%esp
  102a2a:	68 7c 8f 10 00       	push   $0x108f7c
  102a2f:	e8 44 db ff ff       	call   100578 <panic>
  102a34:	8b 45 08             	mov    0x8(%ebp),%eax
  102a37:	8b 40 04             	mov    0x4(%eax),%eax
  102a3a:	83 f8 02             	cmp    $0x2,%eax
  102a3d:	75 16                	jne    102a55 <iderw+0x7b>
  102a3f:	a1 5c cb 10 00       	mov    0x10cb5c,%eax
  102a44:	85 c0                	test   %eax,%eax
  102a46:	75 0d                	jne    102a55 <iderw+0x7b>
  102a48:	83 ec 0c             	sub    $0xc,%esp
  102a4b:	68 9a 8f 10 00       	push   $0x108f9a
  102a50:	e8 23 db ff ff       	call   100578 <panic>
  102a55:	83 ec 0c             	sub    $0xc,%esp
  102a58:	68 20 cb 10 00       	push   $0x10cb20
  102a5d:	e8 e6 1e 00 00       	call   104948 <acquire>
  102a62:	83 c4 10             	add    $0x10,%esp
  102a65:	8b 45 08             	mov    0x8(%ebp),%eax
  102a68:	c7 40 14 00 00 00 00 	movl   $0x0,0x14(%eax)
  102a6f:	c7 45 f4 54 cb 10 00 	movl   $0x10cb54,-0xc(%ebp)
  102a76:	eb 0b                	jmp    102a83 <iderw+0xa9>
  102a78:	8b 45 f4             	mov    -0xc(%ebp),%eax
  102a7b:	8b 00                	mov    (%eax),%eax
  102a7d:	83 c0 14             	add    $0x14,%eax
  102a80:	89 45 f4             	mov    %eax,-0xc(%ebp)
  102a83:	8b 45 f4             	mov    -0xc(%ebp),%eax
  102a86:	8b 00                	mov    (%eax),%eax
  102a88:	85 c0                	test   %eax,%eax
  102a8a:	75 ec                	jne    102a78 <iderw+0x9e>
  102a8c:	8b 45 f4             	mov    -0xc(%ebp),%eax
  102a8f:	8b 55 08             	mov    0x8(%ebp),%edx
  102a92:	89 10                	mov    %edx,(%eax)
  102a94:	a1 54 cb 10 00       	mov    0x10cb54,%eax
  102a99:	39 45 08             	cmp    %eax,0x8(%ebp)
  102a9c:	75 23                	jne    102ac1 <iderw+0xe7>
  102a9e:	83 ec 0c             	sub    $0xc,%esp
  102aa1:	ff 75 08             	pushl  0x8(%ebp)
  102aa4:	e8 c1 fc ff ff       	call   10276a <idestart>
  102aa9:	83 c4 10             	add    $0x10,%esp
  102aac:	eb 13                	jmp    102ac1 <iderw+0xe7>
  102aae:	83 ec 08             	sub    $0x8,%esp
  102ab1:	68 20 cb 10 00       	push   $0x10cb20
  102ab6:	ff 75 08             	pushl  0x8(%ebp)
  102ab9:	e8 91 1b 00 00       	call   10464f <sleep>
  102abe:	83 c4 10             	add    $0x10,%esp
  102ac1:	8b 45 08             	mov    0x8(%ebp),%eax
  102ac4:	8b 00                	mov    (%eax),%eax
  102ac6:	83 e0 06             	and    $0x6,%eax
  102ac9:	83 f8 02             	cmp    $0x2,%eax
  102acc:	75 e0                	jne    102aae <iderw+0xd4>
  102ace:	83 ec 0c             	sub    $0xc,%esp
  102ad1:	68 20 cb 10 00       	push   $0x10cb20
  102ad6:	e8 d4 1e 00 00       	call   1049af <release>
  102adb:	83 c4 10             	add    $0x10,%esp
  102ade:	90                   	nop
  102adf:	c9                   	leave  
  102ae0:	c3                   	ret    

00102ae1 <ioapicread>:
  102ae1:	55                   	push   %ebp
  102ae2:	89 e5                	mov    %esp,%ebp
  102ae4:	a1 54 0d 11 00       	mov    0x110d54,%eax
  102ae9:	8b 55 08             	mov    0x8(%ebp),%edx
  102aec:	89 10                	mov    %edx,(%eax)
  102aee:	a1 54 0d 11 00       	mov    0x110d54,%eax
  102af3:	8b 40 10             	mov    0x10(%eax),%eax
  102af6:	5d                   	pop    %ebp
  102af7:	c3                   	ret    

00102af8 <ioapicwrite>:
  102af8:	55                   	push   %ebp
  102af9:	89 e5                	mov    %esp,%ebp
  102afb:	a1 54 0d 11 00       	mov    0x110d54,%eax
  102b00:	8b 55 08             	mov    0x8(%ebp),%edx
  102b03:	89 10                	mov    %edx,(%eax)
  102b05:	a1 54 0d 11 00       	mov    0x110d54,%eax
  102b0a:	8b 55 0c             	mov    0xc(%ebp),%edx
  102b0d:	89 50 10             	mov    %edx,0x10(%eax)
  102b10:	90                   	nop
  102b11:	5d                   	pop    %ebp
  102b12:	c3                   	ret    

00102b13 <ioapicinit>:
  102b13:	55                   	push   %ebp
  102b14:	89 e5                	mov    %esp,%ebp
  102b16:	83 ec 18             	sub    $0x18,%esp
  102b19:	a1 a4 0d 11 00       	mov    0x110da4,%eax
  102b1e:	85 c0                	test   %eax,%eax
  102b20:	0f 84 a0 00 00 00    	je     102bc6 <ioapicinit+0xb3>
  102b26:	c7 05 54 0d 11 00 00 	movl   $0xfec00000,0x110d54
  102b2d:	00 c0 fe 
  102b30:	6a 01                	push   $0x1
  102b32:	e8 aa ff ff ff       	call   102ae1 <ioapicread>
  102b37:	83 c4 04             	add    $0x4,%esp
  102b3a:	c1 e8 10             	shr    $0x10,%eax
  102b3d:	25 ff 00 00 00       	and    $0xff,%eax
  102b42:	89 45 f0             	mov    %eax,-0x10(%ebp)
  102b45:	6a 00                	push   $0x0
  102b47:	e8 95 ff ff ff       	call   102ae1 <ioapicread>
  102b4c:	83 c4 04             	add    $0x4,%esp
  102b4f:	c1 e8 18             	shr    $0x18,%eax
  102b52:	89 45 ec             	mov    %eax,-0x14(%ebp)
  102b55:	0f b6 05 a0 0d 11 00 	movzbl 0x110da0,%eax
  102b5c:	0f b6 c0             	movzbl %al,%eax
  102b5f:	39 45 ec             	cmp    %eax,-0x14(%ebp)
  102b62:	74 10                	je     102b74 <ioapicinit+0x61>
  102b64:	83 ec 0c             	sub    $0xc,%esp
  102b67:	68 b8 8f 10 00       	push   $0x108fb8
  102b6c:	e8 7b d8 ff ff       	call   1003ec <cprintf>
  102b71:	83 c4 10             	add    $0x10,%esp
  102b74:	c7 45 f4 00 00 00 00 	movl   $0x0,-0xc(%ebp)
  102b7b:	eb 3f                	jmp    102bbc <ioapicinit+0xa9>
  102b7d:	8b 45 f4             	mov    -0xc(%ebp),%eax
  102b80:	83 c0 20             	add    $0x20,%eax
  102b83:	0d 00 00 01 00       	or     $0x10000,%eax
  102b88:	89 c2                	mov    %eax,%edx
  102b8a:	8b 45 f4             	mov    -0xc(%ebp),%eax
  102b8d:	83 c0 08             	add    $0x8,%eax
  102b90:	01 c0                	add    %eax,%eax
  102b92:	83 ec 08             	sub    $0x8,%esp
  102b95:	52                   	push   %edx
  102b96:	50                   	push   %eax
  102b97:	e8 5c ff ff ff       	call   102af8 <ioapicwrite>
  102b9c:	83 c4 10             	add    $0x10,%esp
  102b9f:	8b 45 f4             	mov    -0xc(%ebp),%eax
  102ba2:	83 c0 08             	add    $0x8,%eax
  102ba5:	01 c0                	add    %eax,%eax
  102ba7:	83 c0 01             	add    $0x1,%eax
  102baa:	83 ec 08             	sub    $0x8,%esp
  102bad:	6a 00                	push   $0x0
  102baf:	50                   	push   %eax
  102bb0:	e8 43 ff ff ff       	call   102af8 <ioapicwrite>
  102bb5:	83 c4 10             	add    $0x10,%esp
  102bb8:	83 45 f4 01          	addl   $0x1,-0xc(%ebp)
  102bbc:	8b 45 f4             	mov    -0xc(%ebp),%eax
  102bbf:	3b 45 f0             	cmp    -0x10(%ebp),%eax
  102bc2:	7e b9                	jle    102b7d <ioapicinit+0x6a>
  102bc4:	eb 01                	jmp    102bc7 <ioapicinit+0xb4>
  102bc6:	90                   	nop
  102bc7:	c9                   	leave  
  102bc8:	c3                   	ret    

00102bc9 <ioapicenable>:
  102bc9:	55                   	push   %ebp
  102bca:	89 e5                	mov    %esp,%ebp
  102bcc:	a1 a4 0d 11 00       	mov    0x110da4,%eax
  102bd1:	85 c0                	test   %eax,%eax
  102bd3:	74 39                	je     102c0e <ioapicenable+0x45>
  102bd5:	8b 45 08             	mov    0x8(%ebp),%eax
  102bd8:	83 c0 20             	add    $0x20,%eax
  102bdb:	89 c2                	mov    %eax,%edx
  102bdd:	8b 45 08             	mov    0x8(%ebp),%eax
  102be0:	83 c0 08             	add    $0x8,%eax
  102be3:	01 c0                	add    %eax,%eax
  102be5:	52                   	push   %edx
  102be6:	50                   	push   %eax
  102be7:	e8 0c ff ff ff       	call   102af8 <ioapicwrite>
  102bec:	83 c4 08             	add    $0x8,%esp
  102bef:	8b 45 0c             	mov    0xc(%ebp),%eax
  102bf2:	c1 e0 18             	shl    $0x18,%eax
  102bf5:	89 c2                	mov    %eax,%edx
  102bf7:	8b 45 08             	mov    0x8(%ebp),%eax
  102bfa:	83 c0 08             	add    $0x8,%eax
  102bfd:	01 c0                	add    %eax,%eax
  102bff:	83 c0 01             	add    $0x1,%eax
  102c02:	52                   	push   %edx
  102c03:	50                   	push   %eax
  102c04:	e8 ef fe ff ff       	call   102af8 <ioapicwrite>
  102c09:	83 c4 08             	add    $0x8,%esp
  102c0c:	eb 01                	jmp    102c0f <ioapicenable+0x46>
  102c0e:	90                   	nop
  102c0f:	c9                   	leave  
  102c10:	c3                   	ret    

00102c11 <kinit>:
  102c11:	55                   	push   %ebp
  102c12:	89 e5                	mov    %esp,%ebp
  102c14:	83 ec 18             	sub    $0x18,%esp
  102c17:	83 ec 08             	sub    $0x8,%esp
  102c1a:	68 ea 8f 10 00       	push   $0x108fea
  102c1f:	68 60 0d 11 00       	push   $0x110d60
  102c24:	e8 fd 1c 00 00       	call   104926 <initlock>
  102c29:	83 c4 10             	add    $0x10,%esp
  102c2c:	b8 34 59 11 00       	mov    $0x115934,%eax
  102c31:	05 ff 0f 00 00       	add    $0xfff,%eax
  102c36:	25 00 f0 ff ff       	and    $0xfffff000,%eax
  102c3b:	89 45 f4             	mov    %eax,-0xc(%ebp)
  102c3e:	eb 15                	jmp    102c55 <kinit+0x44>
  102c40:	83 ec 0c             	sub    $0xc,%esp
  102c43:	ff 75 f4             	pushl  -0xc(%ebp)
  102c46:	e8 1c 00 00 00       	call   102c67 <kfree>
  102c4b:	83 c4 10             	add    $0x10,%esp
  102c4e:	81 45 f4 00 10 00 00 	addl   $0x1000,-0xc(%ebp)
  102c55:	8b 45 f4             	mov    -0xc(%ebp),%eax
  102c58:	05 00 10 00 00       	add    $0x1000,%eax
  102c5d:	3d 00 00 00 01       	cmp    $0x1000000,%eax
  102c62:	76 dc                	jbe    102c40 <kinit+0x2f>
  102c64:	90                   	nop
  102c65:	c9                   	leave  
  102c66:	c3                   	ret    

00102c67 <kfree>:
  102c67:	55                   	push   %ebp
  102c68:	89 e5                	mov    %esp,%ebp
  102c6a:	83 ec 18             	sub    $0x18,%esp
  102c6d:	8b 45 08             	mov    0x8(%ebp),%eax
  102c70:	25 ff 0f 00 00       	and    $0xfff,%eax
  102c75:	85 c0                	test   %eax,%eax
  102c77:	75 13                	jne    102c8c <kfree+0x25>
  102c79:	81 7d 08 34 59 11 00 	cmpl   $0x115934,0x8(%ebp)
  102c80:	72 0a                	jb     102c8c <kfree+0x25>
  102c82:	8b 45 08             	mov    0x8(%ebp),%eax
  102c85:	3d ff ff ff 00       	cmp    $0xffffff,%eax
  102c8a:	76 0d                	jbe    102c99 <kfree+0x32>
  102c8c:	83 ec 0c             	sub    $0xc,%esp
  102c8f:	68 ef 8f 10 00       	push   $0x108fef
  102c94:	e8 df d8 ff ff       	call   100578 <panic>
  102c99:	83 ec 04             	sub    $0x4,%esp
  102c9c:	68 00 10 00 00       	push   $0x1000
  102ca1:	6a 01                	push   $0x1
  102ca3:	ff 75 08             	pushl  0x8(%ebp)
  102ca6:	e8 da 1e 00 00       	call   104b85 <memset>
  102cab:	83 c4 10             	add    $0x10,%esp
  102cae:	83 ec 0c             	sub    $0xc,%esp
  102cb1:	68 60 0d 11 00       	push   $0x110d60
  102cb6:	e8 8d 1c 00 00       	call   104948 <acquire>
  102cbb:	83 c4 10             	add    $0x10,%esp
  102cbe:	8b 45 08             	mov    0x8(%ebp),%eax
  102cc1:	89 45 f4             	mov    %eax,-0xc(%ebp)
  102cc4:	8b 15 94 0d 11 00    	mov    0x110d94,%edx
  102cca:	8b 45 f4             	mov    -0xc(%ebp),%eax
  102ccd:	89 10                	mov    %edx,(%eax)
  102ccf:	8b 45 f4             	mov    -0xc(%ebp),%eax
  102cd2:	a3 94 0d 11 00       	mov    %eax,0x110d94
  102cd7:	83 ec 0c             	sub    $0xc,%esp
  102cda:	68 60 0d 11 00       	push   $0x110d60
  102cdf:	e8 cb 1c 00 00       	call   1049af <release>
  102ce4:	83 c4 10             	add    $0x10,%esp
  102ce7:	90                   	nop
  102ce8:	c9                   	leave  
  102ce9:	c3                   	ret    

00102cea <kalloc>:
  102cea:	55                   	push   %ebp
  102ceb:	89 e5                	mov    %esp,%ebp
  102ced:	83 ec 18             	sub    $0x18,%esp
  102cf0:	83 ec 0c             	sub    $0xc,%esp
  102cf3:	68 60 0d 11 00       	push   $0x110d60
  102cf8:	e8 4b 1c 00 00       	call   104948 <acquire>
  102cfd:	83 c4 10             	add    $0x10,%esp
  102d00:	a1 94 0d 11 00       	mov    0x110d94,%eax
  102d05:	89 45 f4             	mov    %eax,-0xc(%ebp)
  102d08:	83 7d f4 00          	cmpl   $0x0,-0xc(%ebp)
  102d0c:	74 0a                	je     102d18 <kalloc+0x2e>
  102d0e:	8b 45 f4             	mov    -0xc(%ebp),%eax
  102d11:	8b 00                	mov    (%eax),%eax
  102d13:	a3 94 0d 11 00       	mov    %eax,0x110d94
  102d18:	83 ec 0c             	sub    $0xc,%esp
  102d1b:	68 60 0d 11 00       	push   $0x110d60
  102d20:	e8 8a 1c 00 00       	call   1049af <release>
  102d25:	83 c4 10             	add    $0x10,%esp
  102d28:	8b 45 f4             	mov    -0xc(%ebp),%eax
  102d2b:	c9                   	leave  
  102d2c:	c3                   	ret    

00102d2d <inb>:
  102d2d:	55                   	push   %ebp
  102d2e:	89 e5                	mov    %esp,%ebp
  102d30:	83 ec 14             	sub    $0x14,%esp
  102d33:	8b 45 08             	mov    0x8(%ebp),%eax
  102d36:	66 89 45 ec          	mov    %ax,-0x14(%ebp)
  102d3a:	0f b7 45 ec          	movzwl -0x14(%ebp),%eax
  102d3e:	89 c2                	mov    %eax,%edx
  102d40:	ec                   	in     (%dx),%al
  102d41:	88 45 ff             	mov    %al,-0x1(%ebp)
  102d44:	0f b6 45 ff          	movzbl -0x1(%ebp),%eax
  102d48:	c9                   	leave  
  102d49:	c3                   	ret    

00102d4a <kbdgetc>:
  102d4a:	55                   	push   %ebp
  102d4b:	89 e5                	mov    %esp,%ebp
  102d4d:	83 ec 10             	sub    $0x10,%esp
  102d50:	6a 64                	push   $0x64
  102d52:	e8 d6 ff ff ff       	call   102d2d <inb>
  102d57:	83 c4 04             	add    $0x4,%esp
  102d5a:	0f b6 c0             	movzbl %al,%eax
  102d5d:	89 45 f4             	mov    %eax,-0xc(%ebp)
  102d60:	8b 45 f4             	mov    -0xc(%ebp),%eax
  102d63:	83 e0 01             	and    $0x1,%eax
  102d66:	85 c0                	test   %eax,%eax
  102d68:	75 0a                	jne    102d74 <kbdgetc+0x2a>
  102d6a:	b8 ff ff ff ff       	mov    $0xffffffff,%eax
  102d6f:	e9 23 01 00 00       	jmp    102e97 <kbdgetc+0x14d>
  102d74:	6a 60                	push   $0x60
  102d76:	e8 b2 ff ff ff       	call   102d2d <inb>
  102d7b:	83 c4 04             	add    $0x4,%esp
  102d7e:	0f b6 c0             	movzbl %al,%eax
  102d81:	89 45 fc             	mov    %eax,-0x4(%ebp)
  102d84:	81 7d fc e0 00 00 00 	cmpl   $0xe0,-0x4(%ebp)
  102d8b:	75 17                	jne    102da4 <kbdgetc+0x5a>
  102d8d:	a1 60 cb 10 00       	mov    0x10cb60,%eax
  102d92:	83 c8 40             	or     $0x40,%eax
  102d95:	a3 60 cb 10 00       	mov    %eax,0x10cb60
  102d9a:	b8 00 00 00 00       	mov    $0x0,%eax
  102d9f:	e9 f3 00 00 00       	jmp    102e97 <kbdgetc+0x14d>
  102da4:	8b 45 fc             	mov    -0x4(%ebp),%eax
  102da7:	25 80 00 00 00       	and    $0x80,%eax
  102dac:	85 c0                	test   %eax,%eax
  102dae:	74 45                	je     102df5 <kbdgetc+0xab>
  102db0:	a1 60 cb 10 00       	mov    0x10cb60,%eax
  102db5:	83 e0 40             	and    $0x40,%eax
  102db8:	85 c0                	test   %eax,%eax
  102dba:	75 08                	jne    102dc4 <kbdgetc+0x7a>
  102dbc:	8b 45 fc             	mov    -0x4(%ebp),%eax
  102dbf:	83 e0 7f             	and    $0x7f,%eax
  102dc2:	eb 03                	jmp    102dc7 <kbdgetc+0x7d>
  102dc4:	8b 45 fc             	mov    -0x4(%ebp),%eax
  102dc7:	89 45 fc             	mov    %eax,-0x4(%ebp)
  102dca:	8b 45 fc             	mov    -0x4(%ebp),%eax
  102dcd:	05 20 c0 10 00       	add    $0x10c020,%eax
  102dd2:	0f b6 00             	movzbl (%eax),%eax
  102dd5:	83 c8 40             	or     $0x40,%eax
  102dd8:	0f b6 c0             	movzbl %al,%eax
  102ddb:	f7 d0                	not    %eax
  102ddd:	89 c2                	mov    %eax,%edx
  102ddf:	a1 60 cb 10 00       	mov    0x10cb60,%eax
  102de4:	21 d0                	and    %edx,%eax
  102de6:	a3 60 cb 10 00       	mov    %eax,0x10cb60
  102deb:	b8 00 00 00 00       	mov    $0x0,%eax
  102df0:	e9 a2 00 00 00       	jmp    102e97 <kbdgetc+0x14d>
  102df5:	a1 60 cb 10 00       	mov    0x10cb60,%eax
  102dfa:	83 e0 40             	and    $0x40,%eax
  102dfd:	85 c0                	test   %eax,%eax
  102dff:	74 14                	je     102e15 <kbdgetc+0xcb>
  102e01:	81 4d fc 80 00 00 00 	orl    $0x80,-0x4(%ebp)
  102e08:	a1 60 cb 10 00       	mov    0x10cb60,%eax
  102e0d:	83 e0 bf             	and    $0xffffffbf,%eax
  102e10:	a3 60 cb 10 00       	mov    %eax,0x10cb60
  102e15:	8b 45 fc             	mov    -0x4(%ebp),%eax
  102e18:	05 20 c0 10 00       	add    $0x10c020,%eax
  102e1d:	0f b6 00             	movzbl (%eax),%eax
  102e20:	0f b6 d0             	movzbl %al,%edx
  102e23:	a1 60 cb 10 00       	mov    0x10cb60,%eax
  102e28:	09 d0                	or     %edx,%eax
  102e2a:	a3 60 cb 10 00       	mov    %eax,0x10cb60
  102e2f:	8b 45 fc             	mov    -0x4(%ebp),%eax
  102e32:	05 20 c1 10 00       	add    $0x10c120,%eax
  102e37:	0f b6 00             	movzbl (%eax),%eax
  102e3a:	0f b6 d0             	movzbl %al,%edx
  102e3d:	a1 60 cb 10 00       	mov    0x10cb60,%eax
  102e42:	31 d0                	xor    %edx,%eax
  102e44:	a3 60 cb 10 00       	mov    %eax,0x10cb60
  102e49:	a1 60 cb 10 00       	mov    0x10cb60,%eax
  102e4e:	83 e0 03             	and    $0x3,%eax
  102e51:	8b 14 85 20 c5 10 00 	mov    0x10c520(,%eax,4),%edx
  102e58:	8b 45 fc             	mov    -0x4(%ebp),%eax
  102e5b:	01 d0                	add    %edx,%eax
  102e5d:	0f b6 00             	movzbl (%eax),%eax
  102e60:	0f b6 c0             	movzbl %al,%eax
  102e63:	89 45 f8             	mov    %eax,-0x8(%ebp)
  102e66:	a1 60 cb 10 00       	mov    0x10cb60,%eax
  102e6b:	83 e0 08             	and    $0x8,%eax
  102e6e:	85 c0                	test   %eax,%eax
  102e70:	74 22                	je     102e94 <kbdgetc+0x14a>
  102e72:	83 7d f8 60          	cmpl   $0x60,-0x8(%ebp)
  102e76:	76 0c                	jbe    102e84 <kbdgetc+0x13a>
  102e78:	83 7d f8 7a          	cmpl   $0x7a,-0x8(%ebp)
  102e7c:	77 06                	ja     102e84 <kbdgetc+0x13a>
  102e7e:	83 6d f8 20          	subl   $0x20,-0x8(%ebp)
  102e82:	eb 10                	jmp    102e94 <kbdgetc+0x14a>
  102e84:	83 7d f8 40          	cmpl   $0x40,-0x8(%ebp)
  102e88:	76 0a                	jbe    102e94 <kbdgetc+0x14a>
  102e8a:	83 7d f8 5a          	cmpl   $0x5a,-0x8(%ebp)
  102e8e:	77 04                	ja     102e94 <kbdgetc+0x14a>
  102e90:	83 45 f8 20          	addl   $0x20,-0x8(%ebp)
  102e94:	8b 45 f8             	mov    -0x8(%ebp),%eax
  102e97:	c9                   	leave  
  102e98:	c3                   	ret    

00102e99 <kbdintr>:
  102e99:	55                   	push   %ebp
  102e9a:	89 e5                	mov    %esp,%ebp
  102e9c:	83 ec 08             	sub    $0x8,%esp
  102e9f:	83 ec 0c             	sub    $0xc,%esp
  102ea2:	68 4a 2d 10 00       	push   $0x102d4a
  102ea7:	e8 5d d9 ff ff       	call   100809 <consoleintr>
  102eac:	83 c4 10             	add    $0x10,%esp
  102eaf:	90                   	nop
  102eb0:	c9                   	leave  
  102eb1:	c3                   	ret    

00102eb2 <outb>:
  102eb2:	55                   	push   %ebp
  102eb3:	89 e5                	mov    %esp,%ebp
  102eb5:	83 ec 08             	sub    $0x8,%esp
  102eb8:	8b 55 08             	mov    0x8(%ebp),%edx
  102ebb:	8b 45 0c             	mov    0xc(%ebp),%eax
  102ebe:	66 89 55 fc          	mov    %dx,-0x4(%ebp)
  102ec2:	88 45 f8             	mov    %al,-0x8(%ebp)
  102ec5:	0f b6 45 f8          	movzbl -0x8(%ebp),%eax
  102ec9:	0f b7 55 fc          	movzwl -0x4(%ebp),%edx
  102ecd:	ee                   	out    %al,(%dx)
  102ece:	90                   	nop
  102ecf:	c9                   	leave  
  102ed0:	c3                   	ret    

00102ed1 <readeflags>:
  102ed1:	55                   	push   %ebp
  102ed2:	89 e5                	mov    %esp,%ebp
  102ed4:	83 ec 10             	sub    $0x10,%esp
  102ed7:	9c                   	pushf  
  102ed8:	58                   	pop    %eax
  102ed9:	89 45 fc             	mov    %eax,-0x4(%ebp)
  102edc:	8b 45 fc             	mov    -0x4(%ebp),%eax
  102edf:	c9                   	leave  
  102ee0:	c3                   	ret    

00102ee1 <lapicw>:
  102ee1:	55                   	push   %ebp
  102ee2:	89 e5                	mov    %esp,%ebp
  102ee4:	a1 98 0d 11 00       	mov    0x110d98,%eax
  102ee9:	8b 55 08             	mov    0x8(%ebp),%edx
  102eec:	c1 e2 02             	shl    $0x2,%edx
  102eef:	01 c2                	add    %eax,%edx
  102ef1:	8b 45 0c             	mov    0xc(%ebp),%eax
  102ef4:	89 02                	mov    %eax,(%edx)
  102ef6:	a1 98 0d 11 00       	mov    0x110d98,%eax
  102efb:	83 c0 20             	add    $0x20,%eax
  102efe:	8b 00                	mov    (%eax),%eax
  102f00:	90                   	nop
  102f01:	5d                   	pop    %ebp
  102f02:	c3                   	ret    

00102f03 <lapicinit>:
  102f03:	55                   	push   %ebp
  102f04:	89 e5                	mov    %esp,%ebp
  102f06:	83 ec 08             	sub    $0x8,%esp
  102f09:	a1 98 0d 11 00       	mov    0x110d98,%eax
  102f0e:	83 ec 04             	sub    $0x4,%esp
  102f11:	50                   	push   %eax
  102f12:	ff 75 08             	pushl  0x8(%ebp)
  102f15:	68 f8 8f 10 00       	push   $0x108ff8
  102f1a:	e8 cd d4 ff ff       	call   1003ec <cprintf>
  102f1f:	83 c4 10             	add    $0x10,%esp
  102f22:	a1 98 0d 11 00       	mov    0x110d98,%eax
  102f27:	85 c0                	test   %eax,%eax
  102f29:	0f 84 35 01 00 00    	je     103064 <lapicinit+0x161>
  102f2f:	83 ec 08             	sub    $0x8,%esp
  102f32:	68 3f 01 00 00       	push   $0x13f
  102f37:	6a 3c                	push   $0x3c
  102f39:	e8 a3 ff ff ff       	call   102ee1 <lapicw>
  102f3e:	83 c4 10             	add    $0x10,%esp
  102f41:	83 ec 08             	sub    $0x8,%esp
  102f44:	6a 0b                	push   $0xb
  102f46:	68 f8 00 00 00       	push   $0xf8
  102f4b:	e8 91 ff ff ff       	call   102ee1 <lapicw>
  102f50:	83 c4 10             	add    $0x10,%esp
  102f53:	83 ec 08             	sub    $0x8,%esp
  102f56:	68 20 00 02 00       	push   $0x20020
  102f5b:	68 c8 00 00 00       	push   $0xc8
  102f60:	e8 7c ff ff ff       	call   102ee1 <lapicw>
  102f65:	83 c4 10             	add    $0x10,%esp
  102f68:	83 ec 08             	sub    $0x8,%esp
  102f6b:	68 80 96 98 00       	push   $0x989680
  102f70:	68 e0 00 00 00       	push   $0xe0
  102f75:	e8 67 ff ff ff       	call   102ee1 <lapicw>
  102f7a:	83 c4 10             	add    $0x10,%esp
  102f7d:	83 ec 08             	sub    $0x8,%esp
  102f80:	68 00 00 01 00       	push   $0x10000
  102f85:	68 d4 00 00 00       	push   $0xd4
  102f8a:	e8 52 ff ff ff       	call   102ee1 <lapicw>
  102f8f:	83 c4 10             	add    $0x10,%esp
  102f92:	83 ec 08             	sub    $0x8,%esp
  102f95:	68 00 00 01 00       	push   $0x10000
  102f9a:	68 d8 00 00 00       	push   $0xd8
  102f9f:	e8 3d ff ff ff       	call   102ee1 <lapicw>
  102fa4:	83 c4 10             	add    $0x10,%esp
  102fa7:	a1 98 0d 11 00       	mov    0x110d98,%eax
  102fac:	83 c0 30             	add    $0x30,%eax
  102faf:	8b 00                	mov    (%eax),%eax
  102fb1:	c1 e8 10             	shr    $0x10,%eax
  102fb4:	0f b6 c0             	movzbl %al,%eax
  102fb7:	83 f8 03             	cmp    $0x3,%eax
  102fba:	76 15                	jbe    102fd1 <lapicinit+0xce>
  102fbc:	83 ec 08             	sub    $0x8,%esp
  102fbf:	68 00 00 01 00       	push   $0x10000
  102fc4:	68 d0 00 00 00       	push   $0xd0
  102fc9:	e8 13 ff ff ff       	call   102ee1 <lapicw>
  102fce:	83 c4 10             	add    $0x10,%esp
  102fd1:	83 ec 08             	sub    $0x8,%esp
  102fd4:	6a 33                	push   $0x33
  102fd6:	68 dc 00 00 00       	push   $0xdc
  102fdb:	e8 01 ff ff ff       	call   102ee1 <lapicw>
  102fe0:	83 c4 10             	add    $0x10,%esp
  102fe3:	83 ec 08             	sub    $0x8,%esp
  102fe6:	6a 00                	push   $0x0
  102fe8:	68 a0 00 00 00       	push   $0xa0
  102fed:	e8 ef fe ff ff       	call   102ee1 <lapicw>
  102ff2:	83 c4 10             	add    $0x10,%esp
  102ff5:	83 ec 08             	sub    $0x8,%esp
  102ff8:	6a 00                	push   $0x0
  102ffa:	68 a0 00 00 00       	push   $0xa0
  102fff:	e8 dd fe ff ff       	call   102ee1 <lapicw>
  103004:	83 c4 10             	add    $0x10,%esp
  103007:	83 ec 08             	sub    $0x8,%esp
  10300a:	6a 00                	push   $0x0
  10300c:	6a 2c                	push   $0x2c
  10300e:	e8 ce fe ff ff       	call   102ee1 <lapicw>
  103013:	83 c4 10             	add    $0x10,%esp
  103016:	83 ec 08             	sub    $0x8,%esp
  103019:	6a 00                	push   $0x0
  10301b:	68 c4 00 00 00       	push   $0xc4
  103020:	e8 bc fe ff ff       	call   102ee1 <lapicw>
  103025:	83 c4 10             	add    $0x10,%esp
  103028:	83 ec 08             	sub    $0x8,%esp
  10302b:	68 00 85 08 00       	push   $0x88500
  103030:	68 c0 00 00 00       	push   $0xc0
  103035:	e8 a7 fe ff ff       	call   102ee1 <lapicw>
  10303a:	83 c4 10             	add    $0x10,%esp
  10303d:	90                   	nop
  10303e:	a1 98 0d 11 00       	mov    0x110d98,%eax
  103043:	05 00 03 00 00       	add    $0x300,%eax
  103048:	8b 00                	mov    (%eax),%eax
  10304a:	25 00 10 00 00       	and    $0x1000,%eax
  10304f:	85 c0                	test   %eax,%eax
  103051:	75 eb                	jne    10303e <lapicinit+0x13b>
  103053:	83 ec 08             	sub    $0x8,%esp
  103056:	6a 00                	push   $0x0
  103058:	6a 20                	push   $0x20
  10305a:	e8 82 fe ff ff       	call   102ee1 <lapicw>
  10305f:	83 c4 10             	add    $0x10,%esp
  103062:	eb 01                	jmp    103065 <lapicinit+0x162>
  103064:	90                   	nop
  103065:	c9                   	leave  
  103066:	c3                   	ret    

00103067 <cpunum>:
  103067:	55                   	push   %ebp
  103068:	89 e5                	mov    %esp,%ebp
  10306a:	83 ec 08             	sub    $0x8,%esp
  10306d:	e8 5f fe ff ff       	call   102ed1 <readeflags>
  103072:	25 00 02 00 00       	and    $0x200,%eax
  103077:	85 c0                	test   %eax,%eax
  103079:	74 26                	je     1030a1 <cpunum+0x3a>
  10307b:	a1 64 cb 10 00       	mov    0x10cb64,%eax
  103080:	8d 50 01             	lea    0x1(%eax),%edx
  103083:	89 15 64 cb 10 00    	mov    %edx,0x10cb64
  103089:	85 c0                	test   %eax,%eax
  10308b:	75 14                	jne    1030a1 <cpunum+0x3a>
  10308d:	8b 45 04             	mov    0x4(%ebp),%eax
  103090:	83 ec 08             	sub    $0x8,%esp
  103093:	50                   	push   %eax
  103094:	68 0c 90 10 00       	push   $0x10900c
  103099:	e8 4e d3 ff ff       	call   1003ec <cprintf>
  10309e:	83 c4 10             	add    $0x10,%esp
  1030a1:	a1 98 0d 11 00       	mov    0x110d98,%eax
  1030a6:	85 c0                	test   %eax,%eax
  1030a8:	74 0f                	je     1030b9 <cpunum+0x52>
  1030aa:	a1 98 0d 11 00       	mov    0x110d98,%eax
  1030af:	83 c0 20             	add    $0x20,%eax
  1030b2:	8b 00                	mov    (%eax),%eax
  1030b4:	c1 e8 18             	shr    $0x18,%eax
  1030b7:	eb 05                	jmp    1030be <cpunum+0x57>
  1030b9:	b8 00 00 00 00       	mov    $0x0,%eax
  1030be:	c9                   	leave  
  1030bf:	c3                   	ret    

001030c0 <lapiceoi>:
  1030c0:	55                   	push   %ebp
  1030c1:	89 e5                	mov    %esp,%ebp
  1030c3:	a1 98 0d 11 00       	mov    0x110d98,%eax
  1030c8:	85 c0                	test   %eax,%eax
  1030ca:	74 0c                	je     1030d8 <lapiceoi+0x18>
  1030cc:	6a 00                	push   $0x0
  1030ce:	6a 2c                	push   $0x2c
  1030d0:	e8 0c fe ff ff       	call   102ee1 <lapicw>
  1030d5:	83 c4 08             	add    $0x8,%esp
  1030d8:	90                   	nop
  1030d9:	c9                   	leave  
  1030da:	c3                   	ret    

001030db <microdelay>:
  1030db:	55                   	push   %ebp
  1030dc:	89 e5                	mov    %esp,%ebp
  1030de:	90                   	nop
  1030df:	5d                   	pop    %ebp
  1030e0:	c3                   	ret    

001030e1 <lapicstartap>:
  1030e1:	55                   	push   %ebp
  1030e2:	89 e5                	mov    %esp,%ebp
  1030e4:	83 ec 14             	sub    $0x14,%esp
  1030e7:	8b 45 08             	mov    0x8(%ebp),%eax
  1030ea:	88 45 ec             	mov    %al,-0x14(%ebp)
  1030ed:	6a 0f                	push   $0xf
  1030ef:	6a 70                	push   $0x70
  1030f1:	e8 bc fd ff ff       	call   102eb2 <outb>
  1030f6:	83 c4 08             	add    $0x8,%esp
  1030f9:	6a 0a                	push   $0xa
  1030fb:	6a 71                	push   $0x71
  1030fd:	e8 b0 fd ff ff       	call   102eb2 <outb>
  103102:	83 c4 08             	add    $0x8,%esp
  103105:	c7 45 f8 67 04 00 00 	movl   $0x467,-0x8(%ebp)
  10310c:	8b 45 f8             	mov    -0x8(%ebp),%eax
  10310f:	66 c7 00 00 00       	movw   $0x0,(%eax)
  103114:	8b 45 0c             	mov    0xc(%ebp),%eax
  103117:	c1 e8 04             	shr    $0x4,%eax
  10311a:	89 c2                	mov    %eax,%edx
  10311c:	8b 45 f8             	mov    -0x8(%ebp),%eax
  10311f:	83 c0 02             	add    $0x2,%eax
  103122:	66 89 10             	mov    %dx,(%eax)
  103125:	0f b6 45 ec          	movzbl -0x14(%ebp),%eax
  103129:	c1 e0 18             	shl    $0x18,%eax
  10312c:	50                   	push   %eax
  10312d:	68 c4 00 00 00       	push   $0xc4
  103132:	e8 aa fd ff ff       	call   102ee1 <lapicw>
  103137:	83 c4 08             	add    $0x8,%esp
  10313a:	68 00 c5 00 00       	push   $0xc500
  10313f:	68 c0 00 00 00       	push   $0xc0
  103144:	e8 98 fd ff ff       	call   102ee1 <lapicw>
  103149:	83 c4 08             	add    $0x8,%esp
  10314c:	68 c8 00 00 00       	push   $0xc8
  103151:	e8 85 ff ff ff       	call   1030db <microdelay>
  103156:	83 c4 04             	add    $0x4,%esp
  103159:	68 00 85 00 00       	push   $0x8500
  10315e:	68 c0 00 00 00       	push   $0xc0
  103163:	e8 79 fd ff ff       	call   102ee1 <lapicw>
  103168:	83 c4 08             	add    $0x8,%esp
  10316b:	6a 64                	push   $0x64
  10316d:	e8 69 ff ff ff       	call   1030db <microdelay>
  103172:	83 c4 04             	add    $0x4,%esp
  103175:	c7 45 fc 00 00 00 00 	movl   $0x0,-0x4(%ebp)
  10317c:	eb 3d                	jmp    1031bb <lapicstartap+0xda>
  10317e:	0f b6 45 ec          	movzbl -0x14(%ebp),%eax
  103182:	c1 e0 18             	shl    $0x18,%eax
  103185:	50                   	push   %eax
  103186:	68 c4 00 00 00       	push   $0xc4
  10318b:	e8 51 fd ff ff       	call   102ee1 <lapicw>
  103190:	83 c4 08             	add    $0x8,%esp
  103193:	8b 45 0c             	mov    0xc(%ebp),%eax
  103196:	c1 e8 0c             	shr    $0xc,%eax
  103199:	80 cc 06             	or     $0x6,%ah
  10319c:	50                   	push   %eax
  10319d:	68 c0 00 00 00       	push   $0xc0
  1031a2:	e8 3a fd ff ff       	call   102ee1 <lapicw>
  1031a7:	83 c4 08             	add    $0x8,%esp
  1031aa:	68 c8 00 00 00       	push   $0xc8
  1031af:	e8 27 ff ff ff       	call   1030db <microdelay>
  1031b4:	83 c4 04             	add    $0x4,%esp
  1031b7:	83 45 fc 01          	addl   $0x1,-0x4(%ebp)
  1031bb:	83 7d fc 01          	cmpl   $0x1,-0x4(%ebp)
  1031bf:	7e bd                	jle    10317e <lapicstartap+0x9d>
  1031c1:	90                   	nop
  1031c2:	c9                   	leave  
  1031c3:	c3                   	ret    

001031c4 <sti>:
  1031c4:	55                   	push   %ebp
  1031c5:	89 e5                	mov    %esp,%ebp
  1031c7:	fb                   	sti    
  1031c8:	90                   	nop
  1031c9:	5d                   	pop    %ebp
  1031ca:	c3                   	ret    

001031cb <xchg>:
  1031cb:	55                   	push   %ebp
  1031cc:	89 e5                	mov    %esp,%ebp
  1031ce:	83 ec 10             	sub    $0x10,%esp
  1031d1:	8b 55 08             	mov    0x8(%ebp),%edx
  1031d4:	8b 45 0c             	mov    0xc(%ebp),%eax
  1031d7:	8b 4d 08             	mov    0x8(%ebp),%ecx
  1031da:	f0 87 02             	lock xchg %eax,(%edx)
  1031dd:	89 45 fc             	mov    %eax,-0x4(%ebp)
  1031e0:	8b 45 fc             	mov    -0x4(%ebp),%eax
  1031e3:	c9                   	leave  
  1031e4:	c3                   	ret    

001031e5 <main>:
  1031e5:	8d 4c 24 04          	lea    0x4(%esp),%ecx
  1031e9:	83 e4 f0             	and    $0xfffffff0,%esp
  1031ec:	ff 71 fc             	pushl  -0x4(%ecx)
  1031ef:	55                   	push   %ebp
  1031f0:	89 e5                	mov    %esp,%ebp
  1031f2:	51                   	push   %ecx
  1031f3:	83 ec 04             	sub    $0x4,%esp
  1031f6:	e8 6c 04 00 00       	call   103667 <mpinit>
  1031fb:	e8 5a 02 00 00       	call   10345a <mpbcpu>
  103200:	83 ec 0c             	sub    $0xc,%esp
  103203:	50                   	push   %eax
  103204:	e8 fa fc ff ff       	call   102f03 <lapicinit>
  103209:	83 c4 10             	add    $0x10,%esp
  10320c:	e8 62 3e 00 00       	call   107073 <seginit>
  103211:	e8 fb f9 ff ff       	call   102c11 <kinit>
  103216:	e8 00 00 00 00       	call   10321b <jmpkstack>

0010321b <jmpkstack>:
  10321b:	55                   	push   %ebp
  10321c:	89 e5                	mov    %esp,%ebp
  10321e:	83 ec 18             	sub    $0x18,%esp
  103221:	e8 c4 fa ff ff       	call   102cea <kalloc>
  103226:	89 45 f4             	mov    %eax,-0xc(%ebp)
  103229:	83 7d f4 00          	cmpl   $0x0,-0xc(%ebp)
  10322d:	75 0d                	jne    10323c <jmpkstack+0x21>
  10322f:	83 ec 0c             	sub    $0xc,%esp
  103232:	68 38 90 10 00       	push   $0x109038
  103237:	e8 3c d3 ff ff       	call   100578 <panic>
  10323c:	8b 45 f4             	mov    -0xc(%ebp),%eax
  10323f:	05 00 10 00 00       	add    $0x1000,%eax
  103244:	89 45 f0             	mov    %eax,-0x10(%ebp)
  103247:	8b 45 f0             	mov    -0x10(%ebp),%eax
  10324a:	89 c4                	mov    %eax,%esp
  10324c:	e8 0d 00 00 00       	call   10325e <mainc>
  103251:	83 ec 0c             	sub    $0xc,%esp
  103254:	68 49 90 10 00       	push   $0x109049
  103259:	e8 1a d3 ff ff       	call   100578 <panic>

0010325e <mainc>:
  10325e:	55                   	push   %ebp
  10325f:	89 e5                	mov    %esp,%ebp
  103261:	83 ec 08             	sub    $0x8,%esp
  103264:	65 a1 00 00 00 00    	mov    %gs:0x0,%eax
  10326a:	0f b6 00             	movzbl (%eax),%eax
  10326d:	0f b6 c0             	movzbl %al,%eax
  103270:	83 ec 08             	sub    $0x8,%esp
  103273:	50                   	push   %eax
  103274:	68 53 90 10 00       	push   $0x109053
  103279:	e8 6e d1 ff ff       	call   1003ec <cprintf>
  10327e:	83 c4 10             	add    $0x10,%esp
  103281:	e8 37 06 00 00       	call   1038bd <picinit>
  103286:	e8 88 f8 ff ff       	call   102b13 <ioapicinit>
  10328b:	e8 85 d8 ff ff       	call   100b15 <consoleinit>
  103290:	e8 24 31 00 00       	call   1063b9 <uartinit>
  103295:	e8 c6 3d 00 00       	call   107060 <kvmalloc>
  10329a:	e8 1e 0b 00 00       	call   103dbd <pinit>
  10329f:	e8 d3 2c 00 00       	call   105f77 <tvinit>
  1032a4:	e8 c1 cd ff ff       	call   10006a <binit>
  1032a9:	e8 a7 dc ff ff       	call   100f55 <fileinit>
  1032ae:	e8 ef e2 ff ff       	call   1015a2 <iinit>
  1032b3:	e8 84 f3 ff ff       	call   10263c <ideinit>
  1032b8:	e8 7b 4a 00 00       	call   107d38 <vfsinit>
  1032bd:	e8 e4 52 00 00       	call   1085a6 <ram_init>
  1032c2:	a1 a4 0d 11 00       	mov    0x110da4,%eax
  1032c7:	85 c0                	test   %eax,%eax
  1032c9:	75 05                	jne    1032d0 <mainc+0x72>
  1032cb:	e8 04 2c 00 00       	call   105ed4 <timerinit>
  1032d0:	e8 97 00 00 00       	call   10336c <bootothers>
  1032d5:	e8 0f 00 00 00       	call   1032e9 <cinit>
  1032da:	e8 e5 fe ff ff       	call   1031c4 <sti>
  1032df:	e8 fd 0b 00 00       	call   103ee1 <userinit>
  1032e4:	e8 b1 11 00 00       	call   10449a <scheduler>

001032e9 <cinit>:
  1032e9:	55                   	push   %ebp
  1032ea:	89 e5                	mov    %esp,%ebp
  1032ec:	53                   	push   %ebx
  1032ed:	83 ec 04             	sub    $0x4,%esp
  1032f0:	e8 72 fd ff ff       	call   103067 <cpunum>
  1032f5:	89 c3                	mov    %eax,%ebx
  1032f7:	e8 5e 01 00 00       	call   10345a <mpbcpu>
  1032fc:	39 c3                	cmp    %eax,%ebx
  1032fe:	74 16                	je     103316 <cinit+0x2d>
  103300:	e8 6e 3d 00 00       	call   107073 <seginit>
  103305:	e8 5d fd ff ff       	call   103067 <cpunum>
  10330a:	83 ec 0c             	sub    $0xc,%esp
  10330d:	50                   	push   %eax
  10330e:	e8 f0 fb ff ff       	call   102f03 <lapicinit>
  103313:	83 c4 10             	add    $0x10,%esp
  103316:	e8 81 43 00 00       	call   10769c <vmenable>
  10331b:	65 a1 00 00 00 00    	mov    %gs:0x0,%eax
  103321:	0f b6 00             	movzbl (%eax),%eax
  103324:	0f b6 c0             	movzbl %al,%eax
  103327:	83 ec 08             	sub    $0x8,%esp
  10332a:	50                   	push   %eax
  10332b:	68 6a 90 10 00       	push   $0x10906a
  103330:	e8 b7 d0 ff ff       	call   1003ec <cprintf>
  103335:	83 c4 10             	add    $0x10,%esp
  103338:	e8 b0 2d 00 00       	call   1060ed <idtinit>
  10333d:	65 a1 00 00 00 00    	mov    %gs:0x0,%eax
  103343:	05 a8 00 00 00       	add    $0xa8,%eax
  103348:	83 ec 08             	sub    $0x8,%esp
  10334b:	6a 01                	push   $0x1
  10334d:	50                   	push   %eax
  10334e:	e8 78 fe ff ff       	call   1031cb <xchg>
  103353:	83 c4 10             	add    $0x10,%esp
  103356:	90                   	nop
  103357:	8b 5d fc             	mov    -0x4(%ebp),%ebx
  10335a:	c9                   	leave  
  10335b:	c3                   	ret    

0010335c <mpmain>:
  10335c:	55                   	push   %ebp
  10335d:	89 e5                	mov    %esp,%ebp
  10335f:	83 ec 08             	sub    $0x8,%esp
  103362:	e8 82 ff ff ff       	call   1032e9 <cinit>
  103367:	e8 2e 11 00 00       	call   10449a <scheduler>

0010336c <bootothers>:
  10336c:	55                   	push   %ebp
  10336d:	89 e5                	mov    %esp,%ebp
  10336f:	83 ec 18             	sub    $0x18,%esp
  103372:	c7 45 f0 00 70 00 00 	movl   $0x7000,-0x10(%ebp)
  103379:	b8 6a 00 00 00       	mov    $0x6a,%eax
  10337e:	83 ec 04             	sub    $0x4,%esp
  103381:	50                   	push   %eax
  103382:	68 4c ca 10 00       	push   $0x10ca4c
  103387:	ff 75 f0             	pushl  -0x10(%ebp)
  10338a:	e8 68 18 00 00       	call   104bf7 <memmove>
  10338f:	83 c4 10             	add    $0x10,%esp
  103392:	c7 45 f4 c0 0d 11 00 	movl   $0x110dc0,-0xc(%ebp)
  103399:	eb 6b                	jmp    103406 <bootothers+0x9a>
  10339b:	e8 c7 fc ff ff       	call   103067 <cpunum>
  1033a0:	69 c0 bc 00 00 00    	imul   $0xbc,%eax,%eax
  1033a6:	05 c0 0d 11 00       	add    $0x110dc0,%eax
  1033ab:	39 45 f4             	cmp    %eax,-0xc(%ebp)
  1033ae:	74 4e                	je     1033fe <bootothers+0x92>
  1033b0:	e8 35 f9 ff ff       	call   102cea <kalloc>
  1033b5:	89 45 ec             	mov    %eax,-0x14(%ebp)
  1033b8:	8b 45 f0             	mov    -0x10(%ebp),%eax
  1033bb:	83 e8 04             	sub    $0x4,%eax
  1033be:	8b 55 ec             	mov    -0x14(%ebp),%edx
  1033c1:	81 c2 00 10 00 00    	add    $0x1000,%edx
  1033c7:	89 10                	mov    %edx,(%eax)
  1033c9:	8b 45 f0             	mov    -0x10(%ebp),%eax
  1033cc:	83 e8 08             	sub    $0x8,%eax
  1033cf:	c7 00 5c 33 10 00    	movl   $0x10335c,(%eax)
  1033d5:	8b 55 f0             	mov    -0x10(%ebp),%edx
  1033d8:	8b 45 f4             	mov    -0xc(%ebp),%eax
  1033db:	0f b6 00             	movzbl (%eax),%eax
  1033de:	0f b6 c0             	movzbl %al,%eax
  1033e1:	83 ec 08             	sub    $0x8,%esp
  1033e4:	52                   	push   %edx
  1033e5:	50                   	push   %eax
  1033e6:	e8 f6 fc ff ff       	call   1030e1 <lapicstartap>
  1033eb:	83 c4 10             	add    $0x10,%esp
  1033ee:	90                   	nop
  1033ef:	8b 45 f4             	mov    -0xc(%ebp),%eax
  1033f2:	8b 80 a8 00 00 00    	mov    0xa8(%eax),%eax
  1033f8:	85 c0                	test   %eax,%eax
  1033fa:	74 f3                	je     1033ef <bootothers+0x83>
  1033fc:	eb 01                	jmp    1033ff <bootothers+0x93>
  1033fe:	90                   	nop
  1033ff:	81 45 f4 bc 00 00 00 	addl   $0xbc,-0xc(%ebp)
  103406:	a1 a0 13 11 00       	mov    0x1113a0,%eax
  10340b:	69 c0 bc 00 00 00    	imul   $0xbc,%eax,%eax
  103411:	05 c0 0d 11 00       	add    $0x110dc0,%eax
  103416:	39 45 f4             	cmp    %eax,-0xc(%ebp)
  103419:	72 80                	jb     10339b <bootothers+0x2f>
  10341b:	90                   	nop
  10341c:	c9                   	leave  
  10341d:	c3                   	ret    

0010341e <inb>:
  10341e:	55                   	push   %ebp
  10341f:	89 e5                	mov    %esp,%ebp
  103421:	83 ec 14             	sub    $0x14,%esp
  103424:	8b 45 08             	mov    0x8(%ebp),%eax
  103427:	66 89 45 ec          	mov    %ax,-0x14(%ebp)
  10342b:	0f b7 45 ec          	movzwl -0x14(%ebp),%eax
  10342f:	89 c2                	mov    %eax,%edx
  103431:	ec                   	in     (%dx),%al
  103432:	88 45 ff             	mov    %al,-0x1(%ebp)
  103435:	0f b6 45 ff          	movzbl -0x1(%ebp),%eax
  103439:	c9                   	leave  
  10343a:	c3                   	ret    

0010343b <outb>:
  10343b:	55                   	push   %ebp
  10343c:	89 e5                	mov    %esp,%ebp
  10343e:	83 ec 08             	sub    $0x8,%esp
  103441:	8b 55 08             	mov    0x8(%ebp),%edx
  103444:	8b 45 0c             	mov    0xc(%ebp),%eax
  103447:	66 89 55 fc          	mov    %dx,-0x4(%ebp)
  10344b:	88 45 f8             	mov    %al,-0x8(%ebp)
  10344e:	0f b6 45 f8          	movzbl -0x8(%ebp),%eax
  103452:	0f b7 55 fc          	movzwl -0x4(%ebp),%edx
  103456:	ee                   	out    %al,(%dx)
  103457:	90                   	nop
  103458:	c9                   	leave  
  103459:	c3                   	ret    

0010345a <mpbcpu>:
  10345a:	55                   	push   %ebp
  10345b:	89 e5                	mov    %esp,%ebp
  10345d:	a1 68 cb 10 00       	mov    0x10cb68,%eax
  103462:	89 c2                	mov    %eax,%edx
  103464:	b8 c0 0d 11 00       	mov    $0x110dc0,%eax
  103469:	29 c2                	sub    %eax,%edx
  10346b:	89 d0                	mov    %edx,%eax
  10346d:	c1 f8 02             	sar    $0x2,%eax
  103470:	69 c0 cf 46 7d 67    	imul   $0x677d46cf,%eax,%eax
  103476:	5d                   	pop    %ebp
  103477:	c3                   	ret    

00103478 <sum>:
  103478:	55                   	push   %ebp
  103479:	89 e5                	mov    %esp,%ebp
  10347b:	83 ec 10             	sub    $0x10,%esp
  10347e:	c7 45 f8 00 00 00 00 	movl   $0x0,-0x8(%ebp)
  103485:	c7 45 fc 00 00 00 00 	movl   $0x0,-0x4(%ebp)
  10348c:	eb 15                	jmp    1034a3 <sum+0x2b>
  10348e:	8b 55 fc             	mov    -0x4(%ebp),%edx
  103491:	8b 45 08             	mov    0x8(%ebp),%eax
  103494:	01 d0                	add    %edx,%eax
  103496:	0f b6 00             	movzbl (%eax),%eax
  103499:	0f b6 c0             	movzbl %al,%eax
  10349c:	01 45 f8             	add    %eax,-0x8(%ebp)
  10349f:	83 45 fc 01          	addl   $0x1,-0x4(%ebp)
  1034a3:	8b 45 fc             	mov    -0x4(%ebp),%eax
  1034a6:	3b 45 0c             	cmp    0xc(%ebp),%eax
  1034a9:	7c e3                	jl     10348e <sum+0x16>
  1034ab:	8b 45 f8             	mov    -0x8(%ebp),%eax
  1034ae:	c9                   	leave  
  1034af:	c3                   	ret    

001034b0 <mpsearch1>:
  1034b0:	55                   	push   %ebp
  1034b1:	89 e5                	mov    %esp,%ebp
  1034b3:	83 ec 18             	sub    $0x18,%esp
  1034b6:	8b 55 0c             	mov    0xc(%ebp),%edx
  1034b9:	8b 45 08             	mov    0x8(%ebp),%eax
  1034bc:	01 d0                	add    %edx,%eax
  1034be:	89 45 f0             	mov    %eax,-0x10(%ebp)
  1034c1:	8b 45 08             	mov    0x8(%ebp),%eax
  1034c4:	89 45 f4             	mov    %eax,-0xc(%ebp)
  1034c7:	eb 36                	jmp    1034ff <mpsearch1+0x4f>
  1034c9:	83 ec 04             	sub    $0x4,%esp
  1034cc:	6a 04                	push   $0x4
  1034ce:	68 7c 90 10 00       	push   $0x10907c
  1034d3:	ff 75 f4             	pushl  -0xc(%ebp)
  1034d6:	e8 c4 16 00 00       	call   104b9f <memcmp>
  1034db:	83 c4 10             	add    $0x10,%esp
  1034de:	85 c0                	test   %eax,%eax
  1034e0:	75 19                	jne    1034fb <mpsearch1+0x4b>
  1034e2:	83 ec 08             	sub    $0x8,%esp
  1034e5:	6a 10                	push   $0x10
  1034e7:	ff 75 f4             	pushl  -0xc(%ebp)
  1034ea:	e8 89 ff ff ff       	call   103478 <sum>
  1034ef:	83 c4 10             	add    $0x10,%esp
  1034f2:	84 c0                	test   %al,%al
  1034f4:	75 05                	jne    1034fb <mpsearch1+0x4b>
  1034f6:	8b 45 f4             	mov    -0xc(%ebp),%eax
  1034f9:	eb 11                	jmp    10350c <mpsearch1+0x5c>
  1034fb:	83 45 f4 10          	addl   $0x10,-0xc(%ebp)
  1034ff:	8b 45 f4             	mov    -0xc(%ebp),%eax
  103502:	3b 45 f0             	cmp    -0x10(%ebp),%eax
  103505:	72 c2                	jb     1034c9 <mpsearch1+0x19>
  103507:	b8 00 00 00 00       	mov    $0x0,%eax
  10350c:	c9                   	leave  
  10350d:	c3                   	ret    

0010350e <mpsearch>:
  10350e:	55                   	push   %ebp
  10350f:	89 e5                	mov    %esp,%ebp
  103511:	83 ec 18             	sub    $0x18,%esp
  103514:	c7 45 f4 00 04 00 00 	movl   $0x400,-0xc(%ebp)
  10351b:	8b 45 f4             	mov    -0xc(%ebp),%eax
  10351e:	83 c0 0f             	add    $0xf,%eax
  103521:	0f b6 00             	movzbl (%eax),%eax
  103524:	0f b6 c0             	movzbl %al,%eax
  103527:	c1 e0 08             	shl    $0x8,%eax
  10352a:	89 c2                	mov    %eax,%edx
  10352c:	8b 45 f4             	mov    -0xc(%ebp),%eax
  10352f:	83 c0 0e             	add    $0xe,%eax
  103532:	0f b6 00             	movzbl (%eax),%eax
  103535:	0f b6 c0             	movzbl %al,%eax
  103538:	09 d0                	or     %edx,%eax
  10353a:	c1 e0 04             	shl    $0x4,%eax
  10353d:	89 45 f0             	mov    %eax,-0x10(%ebp)
  103540:	83 7d f0 00          	cmpl   $0x0,-0x10(%ebp)
  103544:	74 22                	je     103568 <mpsearch+0x5a>
  103546:	8b 45 f0             	mov    -0x10(%ebp),%eax
  103549:	83 ec 08             	sub    $0x8,%esp
  10354c:	68 00 04 00 00       	push   $0x400
  103551:	50                   	push   %eax
  103552:	e8 59 ff ff ff       	call   1034b0 <mpsearch1>
  103557:	83 c4 10             	add    $0x10,%esp
  10355a:	89 45 ec             	mov    %eax,-0x14(%ebp)
  10355d:	83 7d ec 00          	cmpl   $0x0,-0x14(%ebp)
  103561:	74 51                	je     1035b4 <mpsearch+0xa6>
  103563:	8b 45 ec             	mov    -0x14(%ebp),%eax
  103566:	eb 61                	jmp    1035c9 <mpsearch+0xbb>
  103568:	8b 45 f4             	mov    -0xc(%ebp),%eax
  10356b:	83 c0 14             	add    $0x14,%eax
  10356e:	0f b6 00             	movzbl (%eax),%eax
  103571:	0f b6 c0             	movzbl %al,%eax
  103574:	c1 e0 08             	shl    $0x8,%eax
  103577:	89 c2                	mov    %eax,%edx
  103579:	8b 45 f4             	mov    -0xc(%ebp),%eax
  10357c:	83 c0 13             	add    $0x13,%eax
  10357f:	0f b6 00             	movzbl (%eax),%eax
  103582:	0f b6 c0             	movzbl %al,%eax
  103585:	09 d0                	or     %edx,%eax
  103587:	c1 e0 0a             	shl    $0xa,%eax
  10358a:	89 45 f0             	mov    %eax,-0x10(%ebp)
  10358d:	8b 45 f0             	mov    -0x10(%ebp),%eax
  103590:	2d 00 04 00 00       	sub    $0x400,%eax
  103595:	83 ec 08             	sub    $0x8,%esp
  103598:	68 00 04 00 00       	push   $0x400
  10359d:	50                   	push   %eax
  10359e:	e8 0d ff ff ff       	call   1034b0 <mpsearch1>
  1035a3:	83 c4 10             	add    $0x10,%esp
  1035a6:	89 45 ec             	mov    %eax,-0x14(%ebp)
  1035a9:	83 7d ec 00          	cmpl   $0x0,-0x14(%ebp)
  1035ad:	74 05                	je     1035b4 <mpsearch+0xa6>
  1035af:	8b 45 ec             	mov    -0x14(%ebp),%eax
  1035b2:	eb 15                	jmp    1035c9 <mpsearch+0xbb>
  1035b4:	83 ec 08             	sub    $0x8,%esp
  1035b7:	68 00 00 01 00       	push   $0x10000
  1035bc:	68 00 00 0f 00       	push   $0xf0000
  1035c1:	e8 ea fe ff ff       	call   1034b0 <mpsearch1>
  1035c6:	83 c4 10             	add    $0x10,%esp
  1035c9:	c9                   	leave  
  1035ca:	c3                   	ret    

001035cb <mpconfig>:
  1035cb:	55                   	push   %ebp
  1035cc:	89 e5                	mov    %esp,%ebp
  1035ce:	83 ec 18             	sub    $0x18,%esp
  1035d1:	e8 38 ff ff ff       	call   10350e <mpsearch>
  1035d6:	89 45 f4             	mov    %eax,-0xc(%ebp)
  1035d9:	83 7d f4 00          	cmpl   $0x0,-0xc(%ebp)
  1035dd:	74 0a                	je     1035e9 <mpconfig+0x1e>
  1035df:	8b 45 f4             	mov    -0xc(%ebp),%eax
  1035e2:	8b 40 04             	mov    0x4(%eax),%eax
  1035e5:	85 c0                	test   %eax,%eax
  1035e7:	75 07                	jne    1035f0 <mpconfig+0x25>
  1035e9:	b8 00 00 00 00       	mov    $0x0,%eax
  1035ee:	eb 75                	jmp    103665 <mpconfig+0x9a>
  1035f0:	8b 45 f4             	mov    -0xc(%ebp),%eax
  1035f3:	8b 40 04             	mov    0x4(%eax),%eax
  1035f6:	89 45 f0             	mov    %eax,-0x10(%ebp)
  1035f9:	83 ec 04             	sub    $0x4,%esp
  1035fc:	6a 04                	push   $0x4
  1035fe:	68 81 90 10 00       	push   $0x109081
  103603:	ff 75 f0             	pushl  -0x10(%ebp)
  103606:	e8 94 15 00 00       	call   104b9f <memcmp>
  10360b:	83 c4 10             	add    $0x10,%esp
  10360e:	85 c0                	test   %eax,%eax
  103610:	74 07                	je     103619 <mpconfig+0x4e>
  103612:	b8 00 00 00 00       	mov    $0x0,%eax
  103617:	eb 4c                	jmp    103665 <mpconfig+0x9a>
  103619:	8b 45 f0             	mov    -0x10(%ebp),%eax
  10361c:	0f b6 40 06          	movzbl 0x6(%eax),%eax
  103620:	3c 01                	cmp    $0x1,%al
  103622:	74 12                	je     103636 <mpconfig+0x6b>
  103624:	8b 45 f0             	mov    -0x10(%ebp),%eax
  103627:	0f b6 40 06          	movzbl 0x6(%eax),%eax
  10362b:	3c 04                	cmp    $0x4,%al
  10362d:	74 07                	je     103636 <mpconfig+0x6b>
  10362f:	b8 00 00 00 00       	mov    $0x0,%eax
  103634:	eb 2f                	jmp    103665 <mpconfig+0x9a>
  103636:	8b 45 f0             	mov    -0x10(%ebp),%eax
  103639:	0f b7 40 04          	movzwl 0x4(%eax),%eax
  10363d:	0f b7 c0             	movzwl %ax,%eax
  103640:	83 ec 08             	sub    $0x8,%esp
  103643:	50                   	push   %eax
  103644:	ff 75 f0             	pushl  -0x10(%ebp)
  103647:	e8 2c fe ff ff       	call   103478 <sum>
  10364c:	83 c4 10             	add    $0x10,%esp
  10364f:	84 c0                	test   %al,%al
  103651:	74 07                	je     10365a <mpconfig+0x8f>
  103653:	b8 00 00 00 00       	mov    $0x0,%eax
  103658:	eb 0b                	jmp    103665 <mpconfig+0x9a>
  10365a:	8b 45 08             	mov    0x8(%ebp),%eax
  10365d:	8b 55 f4             	mov    -0xc(%ebp),%edx
  103660:	89 10                	mov    %edx,(%eax)
  103662:	8b 45 f0             	mov    -0x10(%ebp),%eax
  103665:	c9                   	leave  
  103666:	c3                   	ret    

00103667 <mpinit>:
  103667:	55                   	push   %ebp
  103668:	89 e5                	mov    %esp,%ebp
  10366a:	83 ec 28             	sub    $0x28,%esp
  10366d:	c7 05 68 cb 10 00 c0 	movl   $0x110dc0,0x10cb68
  103674:	0d 11 00 
  103677:	83 ec 0c             	sub    $0xc,%esp
  10367a:	8d 45 e0             	lea    -0x20(%ebp),%eax
  10367d:	50                   	push   %eax
  10367e:	e8 48 ff ff ff       	call   1035cb <mpconfig>
  103683:	83 c4 10             	add    $0x10,%esp
  103686:	89 45 f0             	mov    %eax,-0x10(%ebp)
  103689:	83 7d f0 00          	cmpl   $0x0,-0x10(%ebp)
  10368d:	0f 84 96 01 00 00    	je     103829 <mpinit+0x1c2>
  103693:	c7 05 a4 0d 11 00 01 	movl   $0x1,0x110da4
  10369a:	00 00 00 
  10369d:	8b 45 f0             	mov    -0x10(%ebp),%eax
  1036a0:	8b 40 24             	mov    0x24(%eax),%eax
  1036a3:	a3 98 0d 11 00       	mov    %eax,0x110d98
  1036a8:	8b 45 f0             	mov    -0x10(%ebp),%eax
  1036ab:	83 c0 2c             	add    $0x2c,%eax
  1036ae:	89 45 f4             	mov    %eax,-0xc(%ebp)
  1036b1:	8b 45 f0             	mov    -0x10(%ebp),%eax
  1036b4:	0f b7 40 04          	movzwl 0x4(%eax),%eax
  1036b8:	0f b7 d0             	movzwl %ax,%edx
  1036bb:	8b 45 f0             	mov    -0x10(%ebp),%eax
  1036be:	01 d0                	add    %edx,%eax
  1036c0:	89 45 ec             	mov    %eax,-0x14(%ebp)
  1036c3:	e9 f2 00 00 00       	jmp    1037ba <mpinit+0x153>
  1036c8:	8b 45 f4             	mov    -0xc(%ebp),%eax
  1036cb:	0f b6 00             	movzbl (%eax),%eax
  1036ce:	0f b6 c0             	movzbl %al,%eax
  1036d1:	83 f8 04             	cmp    $0x4,%eax
  1036d4:	0f 87 bc 00 00 00    	ja     103796 <mpinit+0x12f>
  1036da:	8b 04 85 c4 90 10 00 	mov    0x1090c4(,%eax,4),%eax
  1036e1:	ff e0                	jmp    *%eax
  1036e3:	8b 45 f4             	mov    -0xc(%ebp),%eax
  1036e6:	89 45 e4             	mov    %eax,-0x1c(%ebp)
  1036e9:	8b 45 e4             	mov    -0x1c(%ebp),%eax
  1036ec:	0f b6 40 01          	movzbl 0x1(%eax),%eax
  1036f0:	0f b6 d0             	movzbl %al,%edx
  1036f3:	a1 a0 13 11 00       	mov    0x1113a0,%eax
  1036f8:	39 c2                	cmp    %eax,%edx
  1036fa:	74 2b                	je     103727 <mpinit+0xc0>
  1036fc:	8b 45 e4             	mov    -0x1c(%ebp),%eax
  1036ff:	0f b6 40 01          	movzbl 0x1(%eax),%eax
  103703:	0f b6 d0             	movzbl %al,%edx
  103706:	a1 a0 13 11 00       	mov    0x1113a0,%eax
  10370b:	83 ec 04             	sub    $0x4,%esp
  10370e:	52                   	push   %edx
  10370f:	50                   	push   %eax
  103710:	68 86 90 10 00       	push   $0x109086
  103715:	e8 d2 cc ff ff       	call   1003ec <cprintf>
  10371a:	83 c4 10             	add    $0x10,%esp
  10371d:	c7 05 a4 0d 11 00 00 	movl   $0x0,0x110da4
  103724:	00 00 00 
  103727:	8b 45 e4             	mov    -0x1c(%ebp),%eax
  10372a:	0f b6 40 03          	movzbl 0x3(%eax),%eax
  10372e:	0f b6 c0             	movzbl %al,%eax
  103731:	83 e0 02             	and    $0x2,%eax
  103734:	85 c0                	test   %eax,%eax
  103736:	74 15                	je     10374d <mpinit+0xe6>
  103738:	a1 a0 13 11 00       	mov    0x1113a0,%eax
  10373d:	69 c0 bc 00 00 00    	imul   $0xbc,%eax,%eax
  103743:	05 c0 0d 11 00       	add    $0x110dc0,%eax
  103748:	a3 68 cb 10 00       	mov    %eax,0x10cb68
  10374d:	8b 15 a0 13 11 00    	mov    0x1113a0,%edx
  103753:	a1 a0 13 11 00       	mov    0x1113a0,%eax
  103758:	69 c0 bc 00 00 00    	imul   $0xbc,%eax,%eax
  10375e:	05 c0 0d 11 00       	add    $0x110dc0,%eax
  103763:	88 10                	mov    %dl,(%eax)
  103765:	a1 a0 13 11 00       	mov    0x1113a0,%eax
  10376a:	83 c0 01             	add    $0x1,%eax
  10376d:	a3 a0 13 11 00       	mov    %eax,0x1113a0
  103772:	83 45 f4 14          	addl   $0x14,-0xc(%ebp)
  103776:	eb 42                	jmp    1037ba <mpinit+0x153>
  103778:	8b 45 f4             	mov    -0xc(%ebp),%eax
  10377b:	89 45 e8             	mov    %eax,-0x18(%ebp)
  10377e:	8b 45 e8             	mov    -0x18(%ebp),%eax
  103781:	0f b6 40 01          	movzbl 0x1(%eax),%eax
  103785:	a2 a0 0d 11 00       	mov    %al,0x110da0
  10378a:	83 45 f4 08          	addl   $0x8,-0xc(%ebp)
  10378e:	eb 2a                	jmp    1037ba <mpinit+0x153>
  103790:	83 45 f4 08          	addl   $0x8,-0xc(%ebp)
  103794:	eb 24                	jmp    1037ba <mpinit+0x153>
  103796:	8b 45 f4             	mov    -0xc(%ebp),%eax
  103799:	0f b6 00             	movzbl (%eax),%eax
  10379c:	0f b6 c0             	movzbl %al,%eax
  10379f:	83 ec 08             	sub    $0x8,%esp
  1037a2:	50                   	push   %eax
  1037a3:	68 a4 90 10 00       	push   $0x1090a4
  1037a8:	e8 3f cc ff ff       	call   1003ec <cprintf>
  1037ad:	83 c4 10             	add    $0x10,%esp
  1037b0:	c7 05 a4 0d 11 00 00 	movl   $0x0,0x110da4
  1037b7:	00 00 00 
  1037ba:	8b 45 f4             	mov    -0xc(%ebp),%eax
  1037bd:	3b 45 ec             	cmp    -0x14(%ebp),%eax
  1037c0:	0f 82 02 ff ff ff    	jb     1036c8 <mpinit+0x61>
  1037c6:	a1 a4 0d 11 00       	mov    0x110da4,%eax
  1037cb:	85 c0                	test   %eax,%eax
  1037cd:	75 1d                	jne    1037ec <mpinit+0x185>
  1037cf:	c7 05 a0 13 11 00 01 	movl   $0x1,0x1113a0
  1037d6:	00 00 00 
  1037d9:	c7 05 98 0d 11 00 00 	movl   $0x0,0x110d98
  1037e0:	00 00 00 
  1037e3:	c6 05 a0 0d 11 00 00 	movb   $0x0,0x110da0
  1037ea:	eb 3e                	jmp    10382a <mpinit+0x1c3>
  1037ec:	8b 45 e0             	mov    -0x20(%ebp),%eax
  1037ef:	0f b6 40 0c          	movzbl 0xc(%eax),%eax
  1037f3:	84 c0                	test   %al,%al
  1037f5:	74 33                	je     10382a <mpinit+0x1c3>
  1037f7:	83 ec 08             	sub    $0x8,%esp
  1037fa:	6a 70                	push   $0x70
  1037fc:	6a 22                	push   $0x22
  1037fe:	e8 38 fc ff ff       	call   10343b <outb>
  103803:	83 c4 10             	add    $0x10,%esp
  103806:	83 ec 0c             	sub    $0xc,%esp
  103809:	6a 23                	push   $0x23
  10380b:	e8 0e fc ff ff       	call   10341e <inb>
  103810:	83 c4 10             	add    $0x10,%esp
  103813:	83 c8 01             	or     $0x1,%eax
  103816:	0f b6 c0             	movzbl %al,%eax
  103819:	83 ec 08             	sub    $0x8,%esp
  10381c:	50                   	push   %eax
  10381d:	6a 23                	push   $0x23
  10381f:	e8 17 fc ff ff       	call   10343b <outb>
  103824:	83 c4 10             	add    $0x10,%esp
  103827:	eb 01                	jmp    10382a <mpinit+0x1c3>
  103829:	90                   	nop
  10382a:	c9                   	leave  
  10382b:	c3                   	ret    

0010382c <outb>:
  10382c:	55                   	push   %ebp
  10382d:	89 e5                	mov    %esp,%ebp
  10382f:	83 ec 08             	sub    $0x8,%esp
  103832:	8b 55 08             	mov    0x8(%ebp),%edx
  103835:	8b 45 0c             	mov    0xc(%ebp),%eax
  103838:	66 89 55 fc          	mov    %dx,-0x4(%ebp)
  10383c:	88 45 f8             	mov    %al,-0x8(%ebp)
  10383f:	0f b6 45 f8          	movzbl -0x8(%ebp),%eax
  103843:	0f b7 55 fc          	movzwl -0x4(%ebp),%edx
  103847:	ee                   	out    %al,(%dx)
  103848:	90                   	nop
  103849:	c9                   	leave  
  10384a:	c3                   	ret    

0010384b <picsetmask>:
  10384b:	55                   	push   %ebp
  10384c:	89 e5                	mov    %esp,%ebp
  10384e:	83 ec 04             	sub    $0x4,%esp
  103851:	8b 45 08             	mov    0x8(%ebp),%eax
  103854:	66 89 45 fc          	mov    %ax,-0x4(%ebp)
  103858:	0f b7 45 fc          	movzwl -0x4(%ebp),%eax
  10385c:	66 a3 30 c5 10 00    	mov    %ax,0x10c530
  103862:	0f b7 45 fc          	movzwl -0x4(%ebp),%eax
  103866:	0f b6 c0             	movzbl %al,%eax
  103869:	50                   	push   %eax
  10386a:	6a 21                	push   $0x21
  10386c:	e8 bb ff ff ff       	call   10382c <outb>
  103871:	83 c4 08             	add    $0x8,%esp
  103874:	0f b7 45 fc          	movzwl -0x4(%ebp),%eax
  103878:	66 c1 e8 08          	shr    $0x8,%ax
  10387c:	0f b6 c0             	movzbl %al,%eax
  10387f:	50                   	push   %eax
  103880:	68 a1 00 00 00       	push   $0xa1
  103885:	e8 a2 ff ff ff       	call   10382c <outb>
  10388a:	83 c4 08             	add    $0x8,%esp
  10388d:	90                   	nop
  10388e:	c9                   	leave  
  10388f:	c3                   	ret    

00103890 <picenable>:
  103890:	55                   	push   %ebp
  103891:	89 e5                	mov    %esp,%ebp
  103893:	8b 45 08             	mov    0x8(%ebp),%eax
  103896:	ba 01 00 00 00       	mov    $0x1,%edx
  10389b:	89 c1                	mov    %eax,%ecx
  10389d:	d3 e2                	shl    %cl,%edx
  10389f:	89 d0                	mov    %edx,%eax
  1038a1:	f7 d0                	not    %eax
  1038a3:	89 c2                	mov    %eax,%edx
  1038a5:	0f b7 05 30 c5 10 00 	movzwl 0x10c530,%eax
  1038ac:	21 d0                	and    %edx,%eax
  1038ae:	0f b7 c0             	movzwl %ax,%eax
  1038b1:	50                   	push   %eax
  1038b2:	e8 94 ff ff ff       	call   10384b <picsetmask>
  1038b7:	83 c4 04             	add    $0x4,%esp
  1038ba:	90                   	nop
  1038bb:	c9                   	leave  
  1038bc:	c3                   	ret    

001038bd <picinit>:
  1038bd:	55                   	push   %ebp
  1038be:	89 e5                	mov    %esp,%ebp
  1038c0:	68 ff 00 00 00       	push   $0xff
  1038c5:	6a 21                	push   $0x21
  1038c7:	e8 60 ff ff ff       	call   10382c <outb>
  1038cc:	83 c4 08             	add    $0x8,%esp
  1038cf:	68 ff 00 00 00       	push   $0xff
  1038d4:	68 a1 00 00 00       	push   $0xa1
  1038d9:	e8 4e ff ff ff       	call   10382c <outb>
  1038de:	83 c4 08             	add    $0x8,%esp
  1038e1:	6a 11                	push   $0x11
  1038e3:	6a 20                	push   $0x20
  1038e5:	e8 42 ff ff ff       	call   10382c <outb>
  1038ea:	83 c4 08             	add    $0x8,%esp
  1038ed:	6a 20                	push   $0x20
  1038ef:	6a 21                	push   $0x21
  1038f1:	e8 36 ff ff ff       	call   10382c <outb>
  1038f6:	83 c4 08             	add    $0x8,%esp
  1038f9:	6a 04                	push   $0x4
  1038fb:	6a 21                	push   $0x21
  1038fd:	e8 2a ff ff ff       	call   10382c <outb>
  103902:	83 c4 08             	add    $0x8,%esp
  103905:	6a 03                	push   $0x3
  103907:	6a 21                	push   $0x21
  103909:	e8 1e ff ff ff       	call   10382c <outb>
  10390e:	83 c4 08             	add    $0x8,%esp
  103911:	6a 11                	push   $0x11
  103913:	68 a0 00 00 00       	push   $0xa0
  103918:	e8 0f ff ff ff       	call   10382c <outb>
  10391d:	83 c4 08             	add    $0x8,%esp
  103920:	6a 28                	push   $0x28
  103922:	68 a1 00 00 00       	push   $0xa1
  103927:	e8 00 ff ff ff       	call   10382c <outb>
  10392c:	83 c4 08             	add    $0x8,%esp
  10392f:	6a 02                	push   $0x2
  103931:	68 a1 00 00 00       	push   $0xa1
  103936:	e8 f1 fe ff ff       	call   10382c <outb>
  10393b:	83 c4 08             	add    $0x8,%esp
  10393e:	6a 03                	push   $0x3
  103940:	68 a1 00 00 00       	push   $0xa1
  103945:	e8 e2 fe ff ff       	call   10382c <outb>
  10394a:	83 c4 08             	add    $0x8,%esp
  10394d:	6a 68                	push   $0x68
  10394f:	6a 20                	push   $0x20
  103951:	e8 d6 fe ff ff       	call   10382c <outb>
  103956:	83 c4 08             	add    $0x8,%esp
  103959:	6a 0a                	push   $0xa
  10395b:	6a 20                	push   $0x20
  10395d:	e8 ca fe ff ff       	call   10382c <outb>
  103962:	83 c4 08             	add    $0x8,%esp
  103965:	6a 68                	push   $0x68
  103967:	68 a0 00 00 00       	push   $0xa0
  10396c:	e8 bb fe ff ff       	call   10382c <outb>
  103971:	83 c4 08             	add    $0x8,%esp
  103974:	6a 0a                	push   $0xa
  103976:	68 a0 00 00 00       	push   $0xa0
  10397b:	e8 ac fe ff ff       	call   10382c <outb>
  103980:	83 c4 08             	add    $0x8,%esp
  103983:	0f b7 05 30 c5 10 00 	movzwl 0x10c530,%eax
  10398a:	66 83 f8 ff          	cmp    $0xffff,%ax
  10398e:	74 13                	je     1039a3 <picinit+0xe6>
  103990:	0f b7 05 30 c5 10 00 	movzwl 0x10c530,%eax
  103997:	0f b7 c0             	movzwl %ax,%eax
  10399a:	50                   	push   %eax
  10399b:	e8 ab fe ff ff       	call   10384b <picsetmask>
  1039a0:	83 c4 04             	add    $0x4,%esp
  1039a3:	90                   	nop
  1039a4:	c9                   	leave  
  1039a5:	c3                   	ret    

001039a6 <pipealloc>:
  1039a6:	55                   	push   %ebp
  1039a7:	89 e5                	mov    %esp,%ebp
  1039a9:	83 ec 18             	sub    $0x18,%esp
  1039ac:	c7 45 f4 00 00 00 00 	movl   $0x0,-0xc(%ebp)
  1039b3:	8b 45 0c             	mov    0xc(%ebp),%eax
  1039b6:	c7 00 00 00 00 00    	movl   $0x0,(%eax)
  1039bc:	8b 45 0c             	mov    0xc(%ebp),%eax
  1039bf:	8b 10                	mov    (%eax),%edx
  1039c1:	8b 45 08             	mov    0x8(%ebp),%eax
  1039c4:	89 10                	mov    %edx,(%eax)
  1039c6:	e8 a8 d5 ff ff       	call   100f73 <filealloc>
  1039cb:	89 c2                	mov    %eax,%edx
  1039cd:	8b 45 08             	mov    0x8(%ebp),%eax
  1039d0:	89 10                	mov    %edx,(%eax)
  1039d2:	8b 45 08             	mov    0x8(%ebp),%eax
  1039d5:	8b 00                	mov    (%eax),%eax
  1039d7:	85 c0                	test   %eax,%eax
  1039d9:	0f 84 ca 00 00 00    	je     103aa9 <pipealloc+0x103>
  1039df:	e8 8f d5 ff ff       	call   100f73 <filealloc>
  1039e4:	89 c2                	mov    %eax,%edx
  1039e6:	8b 45 0c             	mov    0xc(%ebp),%eax
  1039e9:	89 10                	mov    %edx,(%eax)
  1039eb:	8b 45 0c             	mov    0xc(%ebp),%eax
  1039ee:	8b 00                	mov    (%eax),%eax
  1039f0:	85 c0                	test   %eax,%eax
  1039f2:	0f 84 b1 00 00 00    	je     103aa9 <pipealloc+0x103>
  1039f8:	e8 ed f2 ff ff       	call   102cea <kalloc>
  1039fd:	89 45 f4             	mov    %eax,-0xc(%ebp)
  103a00:	83 7d f4 00          	cmpl   $0x0,-0xc(%ebp)
  103a04:	0f 84 a2 00 00 00    	je     103aac <pipealloc+0x106>
  103a0a:	8b 45 f4             	mov    -0xc(%ebp),%eax
  103a0d:	c7 80 3c 02 00 00 01 	movl   $0x1,0x23c(%eax)
  103a14:	00 00 00 
  103a17:	8b 45 f4             	mov    -0xc(%ebp),%eax
  103a1a:	c7 80 40 02 00 00 01 	movl   $0x1,0x240(%eax)
  103a21:	00 00 00 
  103a24:	8b 45 f4             	mov    -0xc(%ebp),%eax
  103a27:	c7 80 38 02 00 00 00 	movl   $0x0,0x238(%eax)
  103a2e:	00 00 00 
  103a31:	8b 45 f4             	mov    -0xc(%ebp),%eax
  103a34:	c7 80 34 02 00 00 00 	movl   $0x0,0x234(%eax)
  103a3b:	00 00 00 
  103a3e:	8b 45 f4             	mov    -0xc(%ebp),%eax
  103a41:	83 ec 08             	sub    $0x8,%esp
  103a44:	68 d8 90 10 00       	push   $0x1090d8
  103a49:	50                   	push   %eax
  103a4a:	e8 d7 0e 00 00       	call   104926 <initlock>
  103a4f:	83 c4 10             	add    $0x10,%esp
  103a52:	8b 45 08             	mov    0x8(%ebp),%eax
  103a55:	8b 00                	mov    (%eax),%eax
  103a57:	c7 00 01 00 00 00    	movl   $0x1,(%eax)
  103a5d:	8b 45 08             	mov    0x8(%ebp),%eax
  103a60:	8b 00                	mov    (%eax),%eax
  103a62:	c6 40 08 01          	movb   $0x1,0x8(%eax)
  103a66:	8b 45 08             	mov    0x8(%ebp),%eax
  103a69:	8b 00                	mov    (%eax),%eax
  103a6b:	c6 40 09 00          	movb   $0x0,0x9(%eax)
  103a6f:	8b 45 08             	mov    0x8(%ebp),%eax
  103a72:	8b 00                	mov    (%eax),%eax
  103a74:	8b 55 f4             	mov    -0xc(%ebp),%edx
  103a77:	89 50 0c             	mov    %edx,0xc(%eax)
  103a7a:	8b 45 0c             	mov    0xc(%ebp),%eax
  103a7d:	8b 00                	mov    (%eax),%eax
  103a7f:	c7 00 01 00 00 00    	movl   $0x1,(%eax)
  103a85:	8b 45 0c             	mov    0xc(%ebp),%eax
  103a88:	8b 00                	mov    (%eax),%eax
  103a8a:	c6 40 08 00          	movb   $0x0,0x8(%eax)
  103a8e:	8b 45 0c             	mov    0xc(%ebp),%eax
  103a91:	8b 00                	mov    (%eax),%eax
  103a93:	c6 40 09 01          	movb   $0x1,0x9(%eax)
  103a97:	8b 45 0c             	mov    0xc(%ebp),%eax
  103a9a:	8b 00                	mov    (%eax),%eax
  103a9c:	8b 55 f4             	mov    -0xc(%ebp),%edx
  103a9f:	89 50 0c             	mov    %edx,0xc(%eax)
  103aa2:	b8 00 00 00 00       	mov    $0x0,%eax
  103aa7:	eb 51                	jmp    103afa <pipealloc+0x154>
  103aa9:	90                   	nop
  103aaa:	eb 01                	jmp    103aad <pipealloc+0x107>
  103aac:	90                   	nop
  103aad:	83 7d f4 00          	cmpl   $0x0,-0xc(%ebp)
  103ab1:	74 0e                	je     103ac1 <pipealloc+0x11b>
  103ab3:	83 ec 0c             	sub    $0xc,%esp
  103ab6:	ff 75 f4             	pushl  -0xc(%ebp)
  103ab9:	e8 a9 f1 ff ff       	call   102c67 <kfree>
  103abe:	83 c4 10             	add    $0x10,%esp
  103ac1:	8b 45 08             	mov    0x8(%ebp),%eax
  103ac4:	8b 00                	mov    (%eax),%eax
  103ac6:	85 c0                	test   %eax,%eax
  103ac8:	74 11                	je     103adb <pipealloc+0x135>
  103aca:	8b 45 08             	mov    0x8(%ebp),%eax
